   1              		.syntax unified
   2              		.cpu cortex-m3
   3              		.fpu softvfp
   4              		.eabi_attribute 20, 1
   5              		.eabi_attribute 21, 1
   6              		.eabi_attribute 23, 3
   7              		.eabi_attribute 24, 1
   8              		.eabi_attribute 25, 1
   9              		.eabi_attribute 26, 1
  10              		.eabi_attribute 30, 4
  11              		.eabi_attribute 34, 1
  12              		.eabi_attribute 18, 4
  13              		.thumb
  14              		.file	"gps_ubx.c"
  15              		.text
  16              	.Ltext0:
  17              		.cfi_sections	.debug_frame
  18              		.section	.text.gps_ubx_ucenter_enable_msg.constprop.0,"ax",%progbits
  19              		.align	1
  20              		.thumb
  21              		.thumb_func
  23              	gps_ubx_ucenter_enable_msg.constprop.0:
  24              	.LFB40:
  25              		.file 1 "./modules/gps/gps_ubx_ucenter.c"
   1:./modules/gps/gps_ubx_ucenter.c **** /*
   2:./modules/gps/gps_ubx_ucenter.c ****  * Copyright (C) 2008-2011 The Paparazzi Team
   3:./modules/gps/gps_ubx_ucenter.c ****  *
   4:./modules/gps/gps_ubx_ucenter.c ****  * This file is part of paparazzi.
   5:./modules/gps/gps_ubx_ucenter.c ****  *
   6:./modules/gps/gps_ubx_ucenter.c ****  * paparazzi is free software; you can redistribute it and/or modify
   7:./modules/gps/gps_ubx_ucenter.c ****  * it under the terms of the GNU General Public License as published by
   8:./modules/gps/gps_ubx_ucenter.c ****  * the Free Software Foundation; either version 2, or (at your option)
   9:./modules/gps/gps_ubx_ucenter.c ****  * any later version.
  10:./modules/gps/gps_ubx_ucenter.c ****  *
  11:./modules/gps/gps_ubx_ucenter.c ****  * paparazzi is distributed in the hope that it will be useful,
  12:./modules/gps/gps_ubx_ucenter.c ****  * but WITHOUT ANY WARRANTY; without even the implied warranty of
  13:./modules/gps/gps_ubx_ucenter.c ****  * MERCHANTABILITY or FITNESS FOR A PARTICULAR PURPOSE.  See the
  14:./modules/gps/gps_ubx_ucenter.c ****  * GNU General Public License for more details.
  15:./modules/gps/gps_ubx_ucenter.c ****  *
  16:./modules/gps/gps_ubx_ucenter.c ****  * You should have received a copy of the GNU General Public License
  17:./modules/gps/gps_ubx_ucenter.c ****  * along with paparazzi; see the file COPYING.  If not, write to
  18:./modules/gps/gps_ubx_ucenter.c ****  * the Free Software Foundation, 59 Temple Place - Suite 330,
  19:./modules/gps/gps_ubx_ucenter.c ****  * Boston, MA 02111-1307, USA.
  20:./modules/gps/gps_ubx_ucenter.c ****  *
  21:./modules/gps/gps_ubx_ucenter.c ****  * Initial author: C. De Wagter
  22:./modules/gps/gps_ubx_ucenter.c ****  */
  23:./modules/gps/gps_ubx_ucenter.c **** 
  24:./modules/gps/gps_ubx_ucenter.c **** /**
  25:./modules/gps/gps_ubx_ucenter.c ****  * @file modules/gps/gps_ubx_ucenter.c
  26:./modules/gps/gps_ubx_ucenter.c ****  * @brief Configure Ublox GPS
  27:./modules/gps/gps_ubx_ucenter.c ****  *
  28:./modules/gps/gps_ubx_ucenter.c ****  */
  29:./modules/gps/gps_ubx_ucenter.c **** 
  30:./modules/gps/gps_ubx_ucenter.c **** 
  31:./modules/gps/gps_ubx_ucenter.c **** #include "gps_ubx_ucenter.h"
  32:./modules/gps/gps_ubx_ucenter.c **** 
  33:./modules/gps/gps_ubx_ucenter.c **** //////////////////////////////////////////////////////////////////////////////////////
  34:./modules/gps/gps_ubx_ucenter.c **** //////////////////////////////////////////////////////////////////////////////////////
  35:./modules/gps/gps_ubx_ucenter.c **** //
  36:./modules/gps/gps_ubx_ucenter.c **** // UCENTER: init, periodic and event
  37:./modules/gps/gps_ubx_ucenter.c **** 
  38:./modules/gps/gps_ubx_ucenter.c **** static bool_t gps_ubx_ucenter_autobaud(uint8_t nr);
  39:./modules/gps/gps_ubx_ucenter.c **** static bool_t gps_ubx_ucenter_configure(uint8_t nr);
  40:./modules/gps/gps_ubx_ucenter.c **** 
  41:./modules/gps/gps_ubx_ucenter.c **** #define GPS_UBX_UCENTER_STATUS_STOPPED    0
  42:./modules/gps/gps_ubx_ucenter.c **** #define GPS_UBX_UCENTER_STATUS_AUTOBAUD   1
  43:./modules/gps/gps_ubx_ucenter.c **** #define GPS_UBX_UCENTER_STATUS_CONFIG     2
  44:./modules/gps/gps_ubx_ucenter.c **** 
  45:./modules/gps/gps_ubx_ucenter.c **** #define GPS_UBX_UCENTER_REPLY_NONE        0
  46:./modules/gps/gps_ubx_ucenter.c **** #define GPS_UBX_UCENTER_REPLY_ACK         1
  47:./modules/gps/gps_ubx_ucenter.c **** #define GPS_UBX_UCENTER_REPLY_NACK        2
  48:./modules/gps/gps_ubx_ucenter.c **** #define GPS_UBX_UCENTER_REPLY_VERSION     3
  49:./modules/gps/gps_ubx_ucenter.c **** 
  50:./modules/gps/gps_ubx_ucenter.c **** // All U-Center data
  51:./modules/gps/gps_ubx_ucenter.c **** struct gps_ubx_ucenter_struct gps_ubx_ucenter;
  52:./modules/gps/gps_ubx_ucenter.c **** 
  53:./modules/gps/gps_ubx_ucenter.c **** 
  54:./modules/gps/gps_ubx_ucenter.c **** /////////////////////////////
  55:./modules/gps/gps_ubx_ucenter.c **** // Init Function
  56:./modules/gps/gps_ubx_ucenter.c **** 
  57:./modules/gps/gps_ubx_ucenter.c **** void gps_ubx_ucenter_init(void)
  58:./modules/gps/gps_ubx_ucenter.c **** {
  59:./modules/gps/gps_ubx_ucenter.c ****   // Start UCenter
  60:./modules/gps/gps_ubx_ucenter.c ****   gps_ubx_ucenter.status = GPS_UBX_UCENTER_STATUS_AUTOBAUD;
  61:./modules/gps/gps_ubx_ucenter.c ****   gps_ubx_ucenter.reply = GPS_UBX_UCENTER_REPLY_NONE;
  62:./modules/gps/gps_ubx_ucenter.c ****   gps_ubx_ucenter.cnt = 0;
  63:./modules/gps/gps_ubx_ucenter.c **** 
  64:./modules/gps/gps_ubx_ucenter.c ****   gps_ubx_ucenter.baud_init = 0;
  65:./modules/gps/gps_ubx_ucenter.c ****   gps_ubx_ucenter.baud_run = 0;
  66:./modules/gps/gps_ubx_ucenter.c **** 
  67:./modules/gps/gps_ubx_ucenter.c ****   gps_ubx_ucenter.sw_ver_h = 0;
  68:./modules/gps/gps_ubx_ucenter.c ****   gps_ubx_ucenter.sw_ver_l = 0;
  69:./modules/gps/gps_ubx_ucenter.c ****   gps_ubx_ucenter.hw_ver_h = 0;
  70:./modules/gps/gps_ubx_ucenter.c ****   gps_ubx_ucenter.hw_ver_l = 0;
  71:./modules/gps/gps_ubx_ucenter.c **** 
  72:./modules/gps/gps_ubx_ucenter.c ****   for (int i=0; i<GPS_UBX_UCENTER_CONFIG_STEPS; i++)
  73:./modules/gps/gps_ubx_ucenter.c ****   {
  74:./modules/gps/gps_ubx_ucenter.c ****     gps_ubx_ucenter.replies[i] = 0;
  75:./modules/gps/gps_ubx_ucenter.c ****   }
  76:./modules/gps/gps_ubx_ucenter.c **** }
  77:./modules/gps/gps_ubx_ucenter.c **** 
  78:./modules/gps/gps_ubx_ucenter.c **** 
  79:./modules/gps/gps_ubx_ucenter.c **** /////////////////////////////
  80:./modules/gps/gps_ubx_ucenter.c **** // Periodic Function
  81:./modules/gps/gps_ubx_ucenter.c **** // -time-based configuration
  82:./modules/gps/gps_ubx_ucenter.c **** 
  83:./modules/gps/gps_ubx_ucenter.c **** void gps_ubx_ucenter_periodic(void)
  84:./modules/gps/gps_ubx_ucenter.c **** {
  85:./modules/gps/gps_ubx_ucenter.c ****   switch (gps_ubx_ucenter.status)
  86:./modules/gps/gps_ubx_ucenter.c ****   {
  87:./modules/gps/gps_ubx_ucenter.c ****     // Save processing time inflight
  88:./modules/gps/gps_ubx_ucenter.c ****     case GPS_UBX_UCENTER_STATUS_STOPPED:
  89:./modules/gps/gps_ubx_ucenter.c ****       return;
  90:./modules/gps/gps_ubx_ucenter.c ****     // Automatically Determine Current Baudrate
  91:./modules/gps/gps_ubx_ucenter.c ****     case GPS_UBX_UCENTER_STATUS_AUTOBAUD:
  92:./modules/gps/gps_ubx_ucenter.c ****       if (gps_ubx_ucenter_autobaud(gps_ubx_ucenter.cnt) == FALSE)
  93:./modules/gps/gps_ubx_ucenter.c ****       {
  94:./modules/gps/gps_ubx_ucenter.c ****         gps_ubx_ucenter.status = GPS_UBX_UCENTER_STATUS_CONFIG;
  95:./modules/gps/gps_ubx_ucenter.c ****         gps_ubx_ucenter.cnt = 0;
  96:./modules/gps/gps_ubx_ucenter.c ****       }
  97:./modules/gps/gps_ubx_ucenter.c ****       else
  98:./modules/gps/gps_ubx_ucenter.c ****       {
  99:./modules/gps/gps_ubx_ucenter.c ****         gps_ubx_ucenter.cnt++;
 100:./modules/gps/gps_ubx_ucenter.c ****       }
 101:./modules/gps/gps_ubx_ucenter.c ****       break;
 102:./modules/gps/gps_ubx_ucenter.c ****     // Send Configuration
 103:./modules/gps/gps_ubx_ucenter.c ****     case GPS_UBX_UCENTER_STATUS_CONFIG:
 104:./modules/gps/gps_ubx_ucenter.c ****       if (gps_ubx_ucenter_configure(gps_ubx_ucenter.cnt) == FALSE)
 105:./modules/gps/gps_ubx_ucenter.c ****       {
 106:./modules/gps/gps_ubx_ucenter.c ****         gps_ubx_ucenter.status = GPS_UBX_UCENTER_STATUS_STOPPED;
 107:./modules/gps/gps_ubx_ucenter.c ****         gps_ubx_ucenter.cnt = 0;
 108:./modules/gps/gps_ubx_ucenter.c ****       }
 109:./modules/gps/gps_ubx_ucenter.c ****       else
 110:./modules/gps/gps_ubx_ucenter.c ****       {
 111:./modules/gps/gps_ubx_ucenter.c ****         gps_ubx_ucenter.cnt++;
 112:./modules/gps/gps_ubx_ucenter.c ****       }
 113:./modules/gps/gps_ubx_ucenter.c ****       break;
 114:./modules/gps/gps_ubx_ucenter.c ****     default:
 115:./modules/gps/gps_ubx_ucenter.c ****       // stop this module now...
 116:./modules/gps/gps_ubx_ucenter.c ****       // todo
 117:./modules/gps/gps_ubx_ucenter.c ****       break;
 118:./modules/gps/gps_ubx_ucenter.c ****   }
 119:./modules/gps/gps_ubx_ucenter.c **** }
 120:./modules/gps/gps_ubx_ucenter.c **** 
 121:./modules/gps/gps_ubx_ucenter.c **** /////////////////////////////
 122:./modules/gps/gps_ubx_ucenter.c **** // Event Function
 123:./modules/gps/gps_ubx_ucenter.c **** // -fetch replies: ACK and VERSION info
 124:./modules/gps/gps_ubx_ucenter.c **** 
 125:./modules/gps/gps_ubx_ucenter.c **** void gps_ubx_ucenter_event(void)
 126:./modules/gps/gps_ubx_ucenter.c **** {
 127:./modules/gps/gps_ubx_ucenter.c ****   // Save processing time inflight
 128:./modules/gps/gps_ubx_ucenter.c ****   if (gps_ubx_ucenter.status == GPS_UBX_UCENTER_STATUS_STOPPED)
 129:./modules/gps/gps_ubx_ucenter.c ****     return;
 130:./modules/gps/gps_ubx_ucenter.c **** 
 131:./modules/gps/gps_ubx_ucenter.c ****   // Read Configuration Reply's
 132:./modules/gps/gps_ubx_ucenter.c ****   if (gps_ubx.msg_class == UBX_ACK_ID) {
 133:./modules/gps/gps_ubx_ucenter.c ****     if (gps_ubx.msg_id == UBX_ACK_ACK_ID) {
 134:./modules/gps/gps_ubx_ucenter.c ****       gps_ubx_ucenter.reply = GPS_UBX_UCENTER_REPLY_ACK;
 135:./modules/gps/gps_ubx_ucenter.c ****     }
 136:./modules/gps/gps_ubx_ucenter.c ****     else
 137:./modules/gps/gps_ubx_ucenter.c ****     {
 138:./modules/gps/gps_ubx_ucenter.c ****       gps_ubx_ucenter.reply = GPS_UBX_UCENTER_REPLY_NACK;
 139:./modules/gps/gps_ubx_ucenter.c ****     }
 140:./modules/gps/gps_ubx_ucenter.c ****   }
 141:./modules/gps/gps_ubx_ucenter.c ****   // Version info
 142:./modules/gps/gps_ubx_ucenter.c ****   else if (gps_ubx.msg_class == UBX_MON_ID) {
 143:./modules/gps/gps_ubx_ucenter.c ****     if (gps_ubx.msg_id == UBX_MON_VER_ID ) {
 144:./modules/gps/gps_ubx_ucenter.c ****       gps_ubx_ucenter.reply = GPS_UBX_UCENTER_REPLY_VERSION;
 145:./modules/gps/gps_ubx_ucenter.c ****       gps_ubx_ucenter.sw_ver_h = UBX_MON_VER_c(gps_ubx.msg_buf,0) - '0';
 146:./modules/gps/gps_ubx_ucenter.c ****       gps_ubx_ucenter.sw_ver_l = 10*(UBX_MON_VER_c(gps_ubx.msg_buf,2) - '0');
 147:./modules/gps/gps_ubx_ucenter.c ****       gps_ubx_ucenter.sw_ver_l += UBX_MON_VER_c(gps_ubx.msg_buf,3) - '0';
 148:./modules/gps/gps_ubx_ucenter.c ****       gps_ubx_ucenter.hw_ver_h = UBX_MON_VER_c(gps_ubx.msg_buf,33) - '0';
 149:./modules/gps/gps_ubx_ucenter.c ****       gps_ubx_ucenter.hw_ver_h += 10*(UBX_MON_VER_c(gps_ubx.msg_buf,32) - '0');
 150:./modules/gps/gps_ubx_ucenter.c ****       gps_ubx_ucenter.hw_ver_l = UBX_MON_VER_c(gps_ubx.msg_buf,37) - '0';
 151:./modules/gps/gps_ubx_ucenter.c ****       gps_ubx_ucenter.hw_ver_l += 10*(UBX_MON_VER_c(gps_ubx.msg_buf,36) - '0');
 152:./modules/gps/gps_ubx_ucenter.c ****     }
 153:./modules/gps/gps_ubx_ucenter.c ****   }
 154:./modules/gps/gps_ubx_ucenter.c **** }
 155:./modules/gps/gps_ubx_ucenter.c **** 
 156:./modules/gps/gps_ubx_ucenter.c **** //////////////////////////////////////////////////////////////////////////////////////
 157:./modules/gps/gps_ubx_ucenter.c **** //////////////////////////////////////////////////////////////////////////////////////
 158:./modules/gps/gps_ubx_ucenter.c **** //
 159:./modules/gps/gps_ubx_ucenter.c **** // UCENTER Configuration Functions
 160:./modules/gps/gps_ubx_ucenter.c **** 
 161:./modules/gps/gps_ubx_ucenter.c **** 
 162:./modules/gps/gps_ubx_ucenter.c **** static bool_t gps_ubx_ucenter_autobaud(uint8_t nr)
 163:./modules/gps/gps_ubx_ucenter.c **** {
 164:./modules/gps/gps_ubx_ucenter.c ****   switch (nr)
 165:./modules/gps/gps_ubx_ucenter.c ****   {
 166:./modules/gps/gps_ubx_ucenter.c ****   case 0:
 167:./modules/gps/gps_ubx_ucenter.c ****   case 1:
 168:./modules/gps/gps_ubx_ucenter.c ****     // Very important for some modules:
 169:./modules/gps/gps_ubx_ucenter.c ****     // Give the GPS some time to boot (up to 0.75 second)
 170:./modules/gps/gps_ubx_ucenter.c ****     break;
 171:./modules/gps/gps_ubx_ucenter.c ****   case 2:
 172:./modules/gps/gps_ubx_ucenter.c ****     gps_ubx_ucenter.reply = GPS_UBX_UCENTER_REPLY_NONE;
 173:./modules/gps/gps_ubx_ucenter.c ****     GpsUartSetBaudrate(B38400); // Try the most common first?
 174:./modules/gps/gps_ubx_ucenter.c ****     UbxSend_CFG_MSG(UBX_NAV_ID, UBX_NAV_VELNED_ID, 0, 1, 0, 0);
 175:./modules/gps/gps_ubx_ucenter.c ****     break;
 176:./modules/gps/gps_ubx_ucenter.c ****   case 3:
 177:./modules/gps/gps_ubx_ucenter.c ****     if (gps_ubx_ucenter.reply == GPS_UBX_UCENTER_REPLY_ACK)
 178:./modules/gps/gps_ubx_ucenter.c ****     {
 179:./modules/gps/gps_ubx_ucenter.c ****       gps_ubx_ucenter.baud_init = 38400;
 180:./modules/gps/gps_ubx_ucenter.c ****       return FALSE;
 181:./modules/gps/gps_ubx_ucenter.c ****     }
 182:./modules/gps/gps_ubx_ucenter.c ****     gps_ubx_ucenter.reply = GPS_UBX_UCENTER_REPLY_NONE;
 183:./modules/gps/gps_ubx_ucenter.c ****     GpsUartSetBaudrate(B9600); // Maybe the factory default?
 184:./modules/gps/gps_ubx_ucenter.c ****     UbxSend_CFG_MSG(UBX_NAV_ID, UBX_NAV_VELNED_ID, 0, 1, 0, 0);
 185:./modules/gps/gps_ubx_ucenter.c ****     break;
 186:./modules/gps/gps_ubx_ucenter.c ****   case 4:
 187:./modules/gps/gps_ubx_ucenter.c ****     if (gps_ubx_ucenter.reply == GPS_UBX_UCENTER_REPLY_ACK)
 188:./modules/gps/gps_ubx_ucenter.c ****     {
 189:./modules/gps/gps_ubx_ucenter.c ****       gps_ubx_ucenter.baud_init = 9600;
 190:./modules/gps/gps_ubx_ucenter.c ****       return FALSE;
 191:./modules/gps/gps_ubx_ucenter.c ****     }
 192:./modules/gps/gps_ubx_ucenter.c ****     gps_ubx_ucenter.reply = GPS_UBX_UCENTER_REPLY_NONE;
 193:./modules/gps/gps_ubx_ucenter.c ****     GpsUartSetBaudrate(B57600); // The high-rate default?
 194:./modules/gps/gps_ubx_ucenter.c ****     UbxSend_CFG_MSG(UBX_NAV_ID, UBX_NAV_VELNED_ID, 0, 1, 0, 0);
 195:./modules/gps/gps_ubx_ucenter.c ****     break;
 196:./modules/gps/gps_ubx_ucenter.c ****   case 5:
 197:./modules/gps/gps_ubx_ucenter.c ****     if (gps_ubx_ucenter.reply == GPS_UBX_UCENTER_REPLY_ACK)
 198:./modules/gps/gps_ubx_ucenter.c ****     {
 199:./modules/gps/gps_ubx_ucenter.c ****       gps_ubx_ucenter.baud_init = 57600;
 200:./modules/gps/gps_ubx_ucenter.c ****       return FALSE;
 201:./modules/gps/gps_ubx_ucenter.c ****      }
 202:./modules/gps/gps_ubx_ucenter.c ****     gps_ubx_ucenter.reply = GPS_UBX_UCENTER_REPLY_NONE;
 203:./modules/gps/gps_ubx_ucenter.c ****     GpsUartSetBaudrate(B4800); // Default NMEA baudrate finally?
 204:./modules/gps/gps_ubx_ucenter.c ****     UbxSend_CFG_MSG(UBX_NAV_ID, UBX_NAV_VELNED_ID, 0, 1, 0, 0);
 205:./modules/gps/gps_ubx_ucenter.c ****     break;
 206:./modules/gps/gps_ubx_ucenter.c ****   case 6:
 207:./modules/gps/gps_ubx_ucenter.c ****     if (gps_ubx_ucenter.reply == GPS_UBX_UCENTER_REPLY_ACK)
 208:./modules/gps/gps_ubx_ucenter.c ****     {
 209:./modules/gps/gps_ubx_ucenter.c ****       gps_ubx_ucenter.baud_init = 4800;
 210:./modules/gps/gps_ubx_ucenter.c ****       return FALSE;
 211:./modules/gps/gps_ubx_ucenter.c ****      }
 212:./modules/gps/gps_ubx_ucenter.c **** 
 213:./modules/gps/gps_ubx_ucenter.c ****     // Autoconfig Failed... let's setup the failsafe baudrate
 214:./modules/gps/gps_ubx_ucenter.c ****     // Should we try even a different baudrate?
 215:./modules/gps/gps_ubx_ucenter.c ****     gps_ubx_ucenter.baud_init = 0;
 216:./modules/gps/gps_ubx_ucenter.c ****     GpsUartSetBaudrate(B9600);
 217:./modules/gps/gps_ubx_ucenter.c ****     return FALSE;
 218:./modules/gps/gps_ubx_ucenter.c ****   default:
 219:./modules/gps/gps_ubx_ucenter.c ****     break;
 220:./modules/gps/gps_ubx_ucenter.c ****   }
 221:./modules/gps/gps_ubx_ucenter.c ****   return TRUE;
 222:./modules/gps/gps_ubx_ucenter.c **** }
 223:./modules/gps/gps_ubx_ucenter.c **** 
 224:./modules/gps/gps_ubx_ucenter.c **** /////////////////////////////////////
 225:./modules/gps/gps_ubx_ucenter.c **** // UBlox internal Navigation Solution
 226:./modules/gps/gps_ubx_ucenter.c **** 
 227:./modules/gps/gps_ubx_ucenter.c **** #define NAV_DYN_STATIONARY  1
 228:./modules/gps/gps_ubx_ucenter.c **** #define NAV_DYN_PEDESTRIAN  2
 229:./modules/gps/gps_ubx_ucenter.c **** #define NAV_DYN_AUTOMOTIVE  3
 230:./modules/gps/gps_ubx_ucenter.c **** #define NAV_DYN_SEA         4
 231:./modules/gps/gps_ubx_ucenter.c **** #define NAV_DYN_AIRBORNE_1G 5
 232:./modules/gps/gps_ubx_ucenter.c **** #define NAV_DYN_AIRBORNE_2G 6
 233:./modules/gps/gps_ubx_ucenter.c **** #define NAV_DYN_AIRBORNE_4G 7
 234:./modules/gps/gps_ubx_ucenter.c **** 
 235:./modules/gps/gps_ubx_ucenter.c **** #define NAV5_DYN_PORTABLE    0
 236:./modules/gps/gps_ubx_ucenter.c **** #define NAV5_DYN_FIXED       1
 237:./modules/gps/gps_ubx_ucenter.c **** #define NAV5_DYN_STATIONARY  2
 238:./modules/gps/gps_ubx_ucenter.c **** #define NAV5_DYN_PEDESTRIAN  3
 239:./modules/gps/gps_ubx_ucenter.c **** #define NAV5_DYN_AUTOMOTIVE  4
 240:./modules/gps/gps_ubx_ucenter.c **** #define NAV5_DYN_SEA         5
 241:./modules/gps/gps_ubx_ucenter.c **** #define NAV5_DYN_AIRBORNE_1G 6
 242:./modules/gps/gps_ubx_ucenter.c **** #define NAV5_DYN_AIRBORNE_2G 7
 243:./modules/gps/gps_ubx_ucenter.c **** #define NAV5_DYN_AIRBORNE_4G 8
 244:./modules/gps/gps_ubx_ucenter.c **** 
 245:./modules/gps/gps_ubx_ucenter.c **** #define NAV5_2D_ONLY 1
 246:./modules/gps/gps_ubx_ucenter.c **** #define NAV5_3D_ONLY 2
 247:./modules/gps/gps_ubx_ucenter.c **** #define NAV5_AUTO    3
 248:./modules/gps/gps_ubx_ucenter.c **** 
 249:./modules/gps/gps_ubx_ucenter.c **** #define IGNORED 0
 250:./modules/gps/gps_ubx_ucenter.c **** #define RESERVED 0
 251:./modules/gps/gps_ubx_ucenter.c **** 
 252:./modules/gps/gps_ubx_ucenter.c **** static inline void gps_ubx_ucenter_config_nav(void)
 253:./modules/gps/gps_ubx_ucenter.c **** {
 254:./modules/gps/gps_ubx_ucenter.c ****     //New ublox firmware v5 or higher uses CFG_NAV5 message, CFG_NAV is no longer available
 255:./modules/gps/gps_ubx_ucenter.c ****     if (gps_ubx_ucenter.sw_ver_h < 5)
 256:./modules/gps/gps_ubx_ucenter.c ****     {
 257:./modules/gps/gps_ubx_ucenter.c ****       UbxSend_CFG_NAV(NAV_DYN_AIRBORNE_2G, 3, 16, 24, 20, 5, 0, 0x3C, 0x3C, 0x14, 0x03E8 ,0x0000, 0
 258:./modules/gps/gps_ubx_ucenter.c ****     }
 259:./modules/gps/gps_ubx_ucenter.c ****     else
 260:./modules/gps/gps_ubx_ucenter.c ****     {
 261:./modules/gps/gps_ubx_ucenter.c ****       UbxSend_CFG_NAV5(0x05, NAV5_DYN_AIRBORNE_2G, NAV5_3D_ONLY, IGNORED, IGNORED, IGNORED, IGNORED
 262:./modules/gps/gps_ubx_ucenter.c ****     }
 263:./modules/gps/gps_ubx_ucenter.c **** }
 264:./modules/gps/gps_ubx_ucenter.c **** 
 265:./modules/gps/gps_ubx_ucenter.c **** 
 266:./modules/gps/gps_ubx_ucenter.c **** 
 267:./modules/gps/gps_ubx_ucenter.c **** /////////////////////////////////////
 268:./modules/gps/gps_ubx_ucenter.c **** // UBlox port and protocol GPS configuration
 269:./modules/gps/gps_ubx_ucenter.c **** 
 270:./modules/gps/gps_ubx_ucenter.c **** #define UBX_PROTO_MASK  0x0001
 271:./modules/gps/gps_ubx_ucenter.c **** #define NMEA_PROTO_MASK 0x0002
 272:./modules/gps/gps_ubx_ucenter.c **** #define RTCM_PROTO_MASK 0x0004
 273:./modules/gps/gps_ubx_ucenter.c **** 
 274:./modules/gps/gps_ubx_ucenter.c **** #define GPS_PORT_DDC   0x00
 275:./modules/gps/gps_ubx_ucenter.c **** #define GPS_PORT_UART1 0x01
 276:./modules/gps/gps_ubx_ucenter.c **** #define GPS_PORT_UART2 0x02
 277:./modules/gps/gps_ubx_ucenter.c **** #define GPS_PORT_USB   0x03
 278:./modules/gps/gps_ubx_ucenter.c **** #define GPS_PORT_SPI   0x04
 279:./modules/gps/gps_ubx_ucenter.c **** 
 280:./modules/gps/gps_ubx_ucenter.c **** #ifndef GPS_PORT_ID
 281:./modules/gps/gps_ubx_ucenter.c **** #define GPS_PORT_ID GPS_PORT_UART1
 282:./modules/gps/gps_ubx_ucenter.c **** #endif
 283:./modules/gps/gps_ubx_ucenter.c **** 
 284:./modules/gps/gps_ubx_ucenter.c **** #define __UBX_GPS_BAUD(_u) _u##_BAUD
 285:./modules/gps/gps_ubx_ucenter.c **** #define _UBX_GPS_BAUD(_u) __UBX_GPS_BAUD(_u)
 286:./modules/gps/gps_ubx_ucenter.c **** #define UBX_GPS_BAUD _UBX_GPS_BAUD(GPS_LINK)
 287:./modules/gps/gps_ubx_ucenter.c **** 
 288:./modules/gps/gps_ubx_ucenter.c **** static inline void gps_ubx_ucenter_config_port(void)
 289:./modules/gps/gps_ubx_ucenter.c **** {
 290:./modules/gps/gps_ubx_ucenter.c ****  // I2C Interface
 291:./modules/gps/gps_ubx_ucenter.c ****   #if GPS_PORT_ID == GPS_PORT_DDC
 292:./modules/gps/gps_ubx_ucenter.c ****     UbxSend_CFG_PRT(GPS_PORT_ID, 0x0, 0x0, GPS_I2C_SLAVE_ADDR, 0x0, UBX_PROTO_MASK, UBX_PROTO_MASK,
 293:./modules/gps/gps_ubx_ucenter.c ****   #endif
 294:./modules/gps/gps_ubx_ucenter.c ****   // UART Interface
 295:./modules/gps/gps_ubx_ucenter.c ****   #if GPS_PORT_ID == GPS_PORT_UART1 || GPS_PORT_ID == GPS_PORT_UART2
 296:./modules/gps/gps_ubx_ucenter.c ****     UbxSend_CFG_PRT(GPS_PORT_ID, 0x0, 0x0, 0x000008D0, 38400, UBX_PROTO_MASK, UBX_PROTO_MASK, 0x0, 
 297:./modules/gps/gps_ubx_ucenter.c ****   #endif
 298:./modules/gps/gps_ubx_ucenter.c **** }
 299:./modules/gps/gps_ubx_ucenter.c **** 
 300:./modules/gps/gps_ubx_ucenter.c **** #define GPS_SBAS_ENABLED       0x01
 301:./modules/gps/gps_ubx_ucenter.c **** 
 302:./modules/gps/gps_ubx_ucenter.c **** #define GPS_SBAS_RANGING       0x01
 303:./modules/gps/gps_ubx_ucenter.c **** #define GPS_SBAS_CORRECTIONS   0x02
 304:./modules/gps/gps_ubx_ucenter.c **** #define GPS_SBAS_INTEGRITY     0x04
 305:./modules/gps/gps_ubx_ucenter.c **** 
 306:./modules/gps/gps_ubx_ucenter.c **** static inline void gps_ubx_ucenter_config_sbas(void)
 307:./modules/gps/gps_ubx_ucenter.c **** {
 308:./modules/gps/gps_ubx_ucenter.c ****   // Since March 2nd 2011 EGNOS is released for aviation purposes
 309:./modules/gps/gps_ubx_ucenter.c ****   const uint8_t nrofsat = 1;
 310:./modules/gps/gps_ubx_ucenter.c ****   UbxSend_CFG_SBAS(GPS_SBAS_ENABLED, GPS_SBAS_RANGING | GPS_SBAS_CORRECTIONS | GPS_SBAS_INTEGRITY, 
 311:./modules/gps/gps_ubx_ucenter.c ****   //UbxSend_CFG_SBAS(0x00, 0x00, 0x00, 0x00, 0x00);
 312:./modules/gps/gps_ubx_ucenter.c **** }
 313:./modules/gps/gps_ubx_ucenter.c **** 
 314:./modules/gps/gps_ubx_ucenter.c **** static inline void gps_ubx_ucenter_enable_msg(uint8_t class, uint8_t id, uint8_t rate)
  26              		.loc 1 314 0
  27              		.cfi_startproc
  28              		@ args = 0, pretend = 0, frame = 0
  29              		@ frame_needed = 0, uses_anonymous_args = 0
  30              	.LVL0:
  31 0000 2DE9F041 		push	{r4, r5, r6, r7, r8, lr}
  32              	.LCFI0:
  33              		.cfi_def_cfa_offset 24
  34              		.cfi_offset 4, -24
  35              		.cfi_offset 5, -20
  36              		.cfi_offset 6, -16
  37              		.cfi_offset 7, -12
  38              		.cfi_offset 8, -8
  39              		.cfi_offset 14, -4
  40              	.LBB14:
 315:./modules/gps/gps_ubx_ucenter.c **** {
 316:./modules/gps/gps_ubx_ucenter.c ****   #if GPS_PORT_ID == GPS_PORT_UART1
 317:./modules/gps/gps_ubx_ucenter.c ****     UbxSend_CFG_MSG(class, id, 0, rate, 0, 0);
  41              		.loc 1 317 0
  42 0004 514D     		ldr	r5, .L2
  43              	.LBE14:
 314:./modules/gps/gps_ubx_ucenter.c **** static inline void gps_ubx_ucenter_enable_msg(uint8_t class, uint8_t id, uint8_t rate)
  44              		.loc 1 314 0
  45 0006 8046     		mov	r8, r0
  46 0008 0F46     		mov	r7, r1
  47              	.LBB51:
  48              		.loc 1 317 0
  49 000a 2846     		mov	r0, r5
  50              	.LVL1:
  51 000c B521     		movs	r1, #181
  52              	.LVL2:
  53 000e 504C     		ldr	r4, .L2+4
  54 0010 FFF7FEFF 		bl	uart_transmit
  55              	.LVL3:
  56 0014 2846     		mov	r0, r5
  57 0016 6221     		movs	r1, #98
  58 0018 FFF7FEFF 		bl	uart_transmit
  59              	.LVL4:
  60 001c 0026     		movs	r6, #0
  61              	.LBB15:
  62 001e 2846     		mov	r0, r5
  63 0020 0621     		movs	r1, #6
  64              	.LBE15:
  65 0022 84F81061 		strb	r6, [r4, #272]
  66 0026 84F80F61 		strb	r6, [r4, #271]
  67              	.LVL5:
  68              	.LBB16:
  69 002a FFF7FEFF 		bl	uart_transmit
  70              	.LVL6:
  71 002e 94F80F31 		ldrb	r3, [r4, #271]	@ zero_extendqisi2
  72 0032 94F81021 		ldrb	r2, [r4, #272]	@ zero_extendqisi2
  73 0036 981D     		adds	r0, r3, #6
  74 0038 C1B2     		uxtb	r1, r0
  75 003a 8B18     		adds	r3, r1, r2
  76 003c 84F80F11 		strb	r1, [r4, #271]
  77              	.LBE16:
  78              	.LBB17:
  79 0040 2846     		mov	r0, r5
  80 0042 0121     		movs	r1, #1
  81              	.LBE17:
  82              	.LBB18:
  83 0044 84F81031 		strb	r3, [r4, #272]
  84              	.LVL7:
  85              	.LBE18:
  86              	.LBB19:
  87 0048 FFF7FEFF 		bl	uart_transmit
  88              	.LVL8:
  89 004c 94F80F01 		ldrb	r0, [r4, #271]	@ zero_extendqisi2
  90 0050 94F81021 		ldrb	r2, [r4, #272]	@ zero_extendqisi2
  91 0054 411C     		adds	r1, r0, #1
  92 0056 CBB2     		uxtb	r3, r1
  93 0058 9818     		adds	r0, r3, r2
  94 005a 84F81001 		strb	r0, [r4, #272]
  95              	.LVL9:
  96              	.LBE19:
  97              	.LBB20:
  98              	.LBB21:
  99 005e 0621     		movs	r1, #6
 100 0060 2846     		mov	r0, r5
 101              	.LBE21:
 102              	.LBE20:
 103              	.LBB26:
 104 0062 84F80F31 		strb	r3, [r4, #271]
 105              	.LBE26:
 106              	.LBB27:
 107              	.LBB22:
 108 0066 FFF7FEFF 		bl	uart_transmit
 109              	.LVL10:
 110 006a 94F80F11 		ldrb	r1, [r4, #271]	@ zero_extendqisi2
 111 006e 94F81021 		ldrb	r2, [r4, #272]	@ zero_extendqisi2
 112 0072 8B1D     		adds	r3, r1, #6
 113 0074 D8B2     		uxtb	r0, r3
 114 0076 8118     		adds	r1, r0, r2
 115 0078 84F80F01 		strb	r0, [r4, #271]
 116 007c 84F81011 		strb	r1, [r4, #272]
 117              	.LVL11:
 118              	.LBE22:
 119              	.LBB23:
 120 0080 2846     		mov	r0, r5
 121 0082 3146     		mov	r1, r6
 122 0084 FFF7FEFF 		bl	uart_transmit
 123              	.LVL12:
 124 0088 94F81001 		ldrb	r0, [r4, #272]	@ zero_extendqisi2
 125 008c 94F80F31 		ldrb	r3, [r4, #271]	@ zero_extendqisi2
 126              	.LBE23:
 127              	.LBE27:
 128              	.LBB28:
 129 0090 0121     		movs	r1, #1
 130              	.LBE28:
 131              	.LBB29:
 132              	.LBB24:
 133 0092 C218     		adds	r2, r0, r3
 134              	.LBE24:
 135              	.LBE29:
 136              	.LBB30:
 137 0094 2846     		mov	r0, r5
 138              	.LBE30:
 139              	.LBB31:
 140              	.LBB25:
 141 0096 84F81021 		strb	r2, [r4, #272]
 142              	.LVL13:
 143              	.LBE25:
 144              	.LBE31:
 145              	.LBB32:
 146 009a FFF7FEFF 		bl	uart_transmit
 147              	.LVL14:
 148 009e 94F80F11 		ldrb	r1, [r4, #271]	@ zero_extendqisi2
 149 00a2 94F81021 		ldrb	r2, [r4, #272]	@ zero_extendqisi2
 150 00a6 481C     		adds	r0, r1, #1
 151 00a8 C3B2     		uxtb	r3, r0
 152 00aa 9918     		adds	r1, r3, r2
 153 00ac 84F81011 		strb	r1, [r4, #272]
 154              	.LVL15:
 155              	.LBE32:
 156              	.LBB33:
 157 00b0 2846     		mov	r0, r5
 158 00b2 4146     		mov	r1, r8
 159              	.LBE33:
 160              	.LBB34:
 161 00b4 84F80F31 		strb	r3, [r4, #271]
 162              	.LBE34:
 163              	.LBB35:
 164 00b8 FFF7FEFF 		bl	uart_transmit
 165              	.LVL16:
 166 00bc 94F80F01 		ldrb	r0, [r4, #271]	@ zero_extendqisi2
 167 00c0 94F81031 		ldrb	r3, [r4, #272]	@ zero_extendqisi2
 168 00c4 08EB000C 		add	ip, r8, r0
 169 00c8 5FFA8CF8 		uxtb	r8, ip
 170              	.LVL17:
 171 00cc 84F80F81 		strb	r8, [r4, #271]
 172              	.LBE35:
 173              	.LBB36:
 174 00d0 2846     		mov	r0, r5
 175              	.LBE36:
 176              	.LBB37:
 177 00d2 9844     		add	r8, r8, r3
 178              	.LBE37:
 179              	.LBB38:
 180 00d4 3146     		mov	r1, r6
 181              	.LBE38:
 182              	.LBB39:
 183 00d6 84F81081 		strb	r8, [r4, #272]
 184              	.LVL18:
 185              	.LBE39:
 186              	.LBB40:
 187 00da FFF7FEFF 		bl	uart_transmit
 188              	.LVL19:
 189 00de 94F81021 		ldrb	r2, [r4, #272]	@ zero_extendqisi2
 190 00e2 94F80F11 		ldrb	r1, [r4, #271]	@ zero_extendqisi2
 191 00e6 5018     		adds	r0, r2, r1
 192 00e8 84F81001 		strb	r0, [r4, #272]
 193              	.LVL20:
 194              	.LBE40:
 195              	.LBB41:
 196 00ec 3946     		mov	r1, r7
 197 00ee 2846     		mov	r0, r5
 198 00f0 FFF7FEFF 		bl	uart_transmit
 199              	.LVL21:
 200 00f4 94F80F31 		ldrb	r3, [r4, #271]	@ zero_extendqisi2
 201 00f8 94F81011 		ldrb	r1, [r4, #272]	@ zero_extendqisi2
 202 00fc FF18     		adds	r7, r7, r3
 203              	.LVL22:
 204 00fe FAB2     		uxtb	r2, r7
 205 0100 5718     		adds	r7, r2, r1
 206              	.LBE41:
 207              	.LBB42:
 208 0102 2846     		mov	r0, r5
 209 0104 3146     		mov	r1, r6
 210              	.LBE42:
 211              	.LBB43:
 212 0106 84F80F21 		strb	r2, [r4, #271]
 213 010a 84F81071 		strb	r7, [r4, #272]
 214              	.LVL23:
 215              	.LBE43:
 216              	.LBB44:
 217 010e FFF7FEFF 		bl	uart_transmit
 218              	.LVL24:
 219 0112 94F81001 		ldrb	r0, [r4, #272]	@ zero_extendqisi2
 220 0116 94F80F31 		ldrb	r3, [r4, #271]	@ zero_extendqisi2
 221              	.LBE44:
 222              	.LBB45:
 223 011a 3146     		mov	r1, r6
 224              	.LBE45:
 225              	.LBB46:
 226 011c C218     		adds	r2, r0, r3
 227              	.LBE46:
 228              	.LBB47:
 229 011e 2846     		mov	r0, r5
 230              	.LBE47:
 231              	.LBB48:
 232 0120 84F81021 		strb	r2, [r4, #272]
 233              	.LVL25:
 234              	.LBE48:
 235              	.LBB49:
 236 0124 FFF7FEFF 		bl	uart_transmit
 237              	.LVL26:
 238 0128 94F81001 		ldrb	r0, [r4, #272]	@ zero_extendqisi2
 239 012c 94F80F11 		ldrb	r1, [r4, #271]	@ zero_extendqisi2
 240 0130 0B18     		adds	r3, r1, r0
 241              	.LBE49:
 242 0132 2846     		mov	r0, r5
 243              	.LBB50:
 244 0134 84F81031 		strb	r3, [r4, #272]
 245              	.LBE50:
 246 0138 FFF7FEFF 		bl	uart_transmit
 247              	.LVL27:
 248 013c 94F81011 		ldrb	r1, [r4, #272]	@ zero_extendqisi2
 249 0140 2846     		mov	r0, r5
 250              	.LBE51:
 318:./modules/gps/gps_ubx_ucenter.c ****   #endif
 319:./modules/gps/gps_ubx_ucenter.c ****   #if GPS_PORT_ID == GPS_PORT_UART2
 320:./modules/gps/gps_ubx_ucenter.c ****     UbxSend_CFG_MSG(class, id, 0, 0, rate, 0);
 321:./modules/gps/gps_ubx_ucenter.c ****   #endif
 322:./modules/gps/gps_ubx_ucenter.c ****   #if GPS_PORT_ID == GPS_PORT_DDC
 323:./modules/gps/gps_ubx_ucenter.c ****     UbxSend_CFG_MSG(class, id, rate, 0, 0, 0);
 324:./modules/gps/gps_ubx_ucenter.c ****   #endif
 325:./modules/gps/gps_ubx_ucenter.c **** }
 251              		.loc 1 325 0
 252 0142 BDE8F041 		pop	{r4, r5, r6, r7, r8, lr}
 253              	.LBB52:
 317:./modules/gps/gps_ubx_ucenter.c ****     UbxSend_CFG_MSG(class, id, 0, rate, 0, 0);
 254              		.loc 1 317 0
 255 0146 FFF7FEBF 		b	uart_transmit
 256              	.LVL28:
 257              	.L3:
 258 014a 00BF     		.align	2
 259              	.L2:
 260 014c 00000000 		.word	uart3
 261 0150 00000000 		.word	.LANCHOR0
 262              	.LBE52:
 263              		.cfi_endproc
 264              	.LFE40:
 266              		.section	.text.gps_impl_init,"ax",%progbits
 267              		.align	1
 268              		.global	gps_impl_init
 269              		.thumb
 270              		.thumb_func
 272              	gps_impl_init:
 273              	.LFB20:
 274              		.file 2 "subsystems/gps/gps_ubx.c"
   1:subsystems/gps/gps_ubx.c **** /*
   2:subsystems/gps/gps_ubx.c ****  * Copyright (C) 2010 Antoine Drouin <poinix@gmail.com>
   3:subsystems/gps/gps_ubx.c ****  *
   4:subsystems/gps/gps_ubx.c ****  * This file is part of paparazzi.
   5:subsystems/gps/gps_ubx.c ****  *
   6:subsystems/gps/gps_ubx.c ****  * paparazzi is free software; you can redistribute it and/or modify
   7:subsystems/gps/gps_ubx.c ****  * it under the terms of the GNU General Public License as published by
   8:subsystems/gps/gps_ubx.c ****  * the Free Software Foundation; either version 2, or (at your option)
   9:subsystems/gps/gps_ubx.c ****  * any later version.
  10:subsystems/gps/gps_ubx.c ****  *
  11:subsystems/gps/gps_ubx.c ****  * paparazzi is distributed in the hope that it will be useful,
  12:subsystems/gps/gps_ubx.c ****  * but WITHOUT ANY WARRANTY; without even the implied warranty of
  13:subsystems/gps/gps_ubx.c ****  * MERCHANTABILITY or FITNESS FOR A PARTICULAR PURPOSE.  See the
  14:subsystems/gps/gps_ubx.c ****  * GNU General Public License for more details.
  15:subsystems/gps/gps_ubx.c ****  *
  16:subsystems/gps/gps_ubx.c ****  * You should have received a copy of the GNU General Public License
  17:subsystems/gps/gps_ubx.c ****  * along with paparazzi; see the file COPYING.  If not, write to
  18:subsystems/gps/gps_ubx.c ****  * the Free Software Foundation, 59 Temple Place - Suite 330,
  19:subsystems/gps/gps_ubx.c ****  * Boston, MA 02111-1307, USA.
  20:subsystems/gps/gps_ubx.c ****  */
  21:subsystems/gps/gps_ubx.c **** 
  22:subsystems/gps/gps_ubx.c **** 
  23:subsystems/gps/gps_ubx.c **** #include "subsystems/gps.h"
  24:subsystems/gps/gps_ubx.c **** 
  25:subsystems/gps/gps_ubx.c **** #include "led.h"
  26:subsystems/gps/gps_ubx.c **** 
  27:subsystems/gps/gps_ubx.c **** #if GPS_USE_LATLONG
  28:subsystems/gps/gps_ubx.c **** /* currently needed to get nav_utm_zone0 */
  29:subsystems/gps/gps_ubx.c **** #include "subsystems/navigation/common_nav.h"
  30:subsystems/gps/gps_ubx.c **** #include "math/pprz_geodetic_float.h"
  31:subsystems/gps/gps_ubx.c **** #endif
  32:subsystems/gps/gps_ubx.c **** 
  33:subsystems/gps/gps_ubx.c **** /* parser status */
  34:subsystems/gps/gps_ubx.c **** #define UNINIT        0
  35:subsystems/gps/gps_ubx.c **** #define GOT_SYNC1     1
  36:subsystems/gps/gps_ubx.c **** #define GOT_SYNC2     2
  37:subsystems/gps/gps_ubx.c **** #define GOT_CLASS     3
  38:subsystems/gps/gps_ubx.c **** #define GOT_ID        4
  39:subsystems/gps/gps_ubx.c **** #define GOT_LEN1      5
  40:subsystems/gps/gps_ubx.c **** #define GOT_LEN2      6
  41:subsystems/gps/gps_ubx.c **** #define GOT_PAYLOAD   7
  42:subsystems/gps/gps_ubx.c **** #define GOT_CHECKSUM1 8
  43:subsystems/gps/gps_ubx.c **** 
  44:subsystems/gps/gps_ubx.c **** /* last error type */
  45:subsystems/gps/gps_ubx.c **** #define GPS_UBX_ERR_NONE         0
  46:subsystems/gps/gps_ubx.c **** #define GPS_UBX_ERR_OVERRUN      1
  47:subsystems/gps/gps_ubx.c **** #define GPS_UBX_ERR_MSG_TOO_LONG 2
  48:subsystems/gps/gps_ubx.c **** #define GPS_UBX_ERR_CHECKSUM     3
  49:subsystems/gps/gps_ubx.c **** #define GPS_UBX_ERR_UNEXPECTED   4
  50:subsystems/gps/gps_ubx.c **** #define GPS_UBX_ERR_OUT_OF_SYNC  5
  51:subsystems/gps/gps_ubx.c **** 
  52:subsystems/gps/gps_ubx.c **** #define UTM_HEM_NORTH 0
  53:subsystems/gps/gps_ubx.c **** #define UTM_HEM_SOUTH 1
  54:subsystems/gps/gps_ubx.c **** 
  55:subsystems/gps/gps_ubx.c **** 
  56:subsystems/gps/gps_ubx.c **** #define GpsUartSend1(c) GpsLink(Transmit(c))
  57:subsystems/gps/gps_ubx.c **** #define GpsUartSetBaudrate(_a) GpsLink(SetBaudrate(_a))
  58:subsystems/gps/gps_ubx.c **** #define GpsUartRunning GpsLink(TxRunning)
  59:subsystems/gps/gps_ubx.c **** #define GpsUartSendMessage GpsLink(SendMessage)
  60:subsystems/gps/gps_ubx.c **** 
  61:subsystems/gps/gps_ubx.c **** #define UbxInitCheksum() { gps_ubx.send_ck_a = gps_ubx.send_ck_b = 0; }
  62:subsystems/gps/gps_ubx.c **** #define UpdateChecksum(c) { gps_ubx.send_ck_a += c; gps_ubx.send_ck_b += gps_ubx.send_ck_a; }
  63:subsystems/gps/gps_ubx.c **** #define UbxTrailer() { GpsUartSend1(gps_ubx.send_ck_a);  GpsUartSend1(gps_ubx.send_ck_b); GpsUartSe
  64:subsystems/gps/gps_ubx.c **** 
  65:subsystems/gps/gps_ubx.c **** #define UbxSend1(c) { uint8_t i8=c; GpsUartSend1(i8); UpdateChecksum(i8); }
  66:subsystems/gps/gps_ubx.c **** #define UbxSend2(c) { uint16_t i16=c; UbxSend1(i16&0xff); UbxSend1(i16 >> 8); }
  67:subsystems/gps/gps_ubx.c **** #define UbxSend1ByAddr(x) { UbxSend1(*x); }
  68:subsystems/gps/gps_ubx.c **** #define UbxSend2ByAddr(x) { UbxSend1(*x); UbxSend1(*(x+1)); }
  69:subsystems/gps/gps_ubx.c **** #define UbxSend4ByAddr(x) { UbxSend1(*x); UbxSend1(*(x+1)); UbxSend1(*(x+2)); UbxSend1(*(x+3)); }
  70:subsystems/gps/gps_ubx.c **** 
  71:subsystems/gps/gps_ubx.c **** #define UbxHeader(nav_id, msg_id, len) {        \
  72:subsystems/gps/gps_ubx.c ****     GpsUartSend1(UBX_SYNC1);                    \
  73:subsystems/gps/gps_ubx.c ****     GpsUartSend1(UBX_SYNC2);                    \
  74:subsystems/gps/gps_ubx.c ****     UbxInitCheksum();                           \
  75:subsystems/gps/gps_ubx.c ****     UbxSend1(nav_id);                           \
  76:subsystems/gps/gps_ubx.c ****     UbxSend1(msg_id);                           \
  77:subsystems/gps/gps_ubx.c ****     UbxSend2(len);                              \
  78:subsystems/gps/gps_ubx.c ****   }
  79:subsystems/gps/gps_ubx.c **** 
  80:subsystems/gps/gps_ubx.c **** 
  81:subsystems/gps/gps_ubx.c **** struct GpsUbx gps_ubx;
  82:subsystems/gps/gps_ubx.c **** 
  83:subsystems/gps/gps_ubx.c **** void gps_impl_init(void) {
 275              		.loc 2 83 0
 276              		.cfi_startproc
 277              		@ args = 0, pretend = 0, frame = 0
 278              		@ frame_needed = 0, uses_anonymous_args = 0
 279              		@ link register save eliminated.
  84:subsystems/gps/gps_ubx.c ****    gps_ubx.status = UNINIT;
 280              		.loc 2 84 0
 281 0000 054B     		ldr	r3, .L5
 282 0002 0022     		movs	r2, #0
 283 0004 83F80921 		strb	r2, [r3, #265]
  85:subsystems/gps/gps_ubx.c ****    gps_ubx.msg_available = FALSE;
 284              		.loc 2 85 0
 285 0008 1A70     		strb	r2, [r3, #0]
  86:subsystems/gps/gps_ubx.c ****    gps_ubx.error_cnt = 0;
 286              		.loc 2 86 0
 287 000a 83F81121 		strb	r2, [r3, #273]
  87:subsystems/gps/gps_ubx.c ****    gps_ubx.error_last = GPS_UBX_ERR_NONE;
 288              		.loc 2 87 0
 289 000e 83F81221 		strb	r2, [r3, #274]
  88:subsystems/gps/gps_ubx.c ****    gps_ubx.have_velned = 0;
 290              		.loc 2 88 0
 291 0012 83F81521 		strb	r2, [r3, #277]
 292 0016 7047     		bx	lr
 293              	.L6:
 294              		.align	2
 295              	.L5:
 296 0018 00000000 		.word	.LANCHOR0
 297              		.cfi_endproc
 298              	.LFE20:
 300              		.global	__aeabi_i2d
 301              		.global	__aeabi_dmul
 302              		.global	__aeabi_d2iz
 303              		.global	__aeabi_ui2d
 304              		.global	__aeabi_d2uiz
 305              		.section	.text.gps_ubx_read_message,"ax",%progbits
 306              		.align	1
 307              		.global	gps_ubx_read_message
 308              		.thumb
 309              		.thumb_func
 311              	gps_ubx_read_message:
 312              	.LFB21:
  89:subsystems/gps/gps_ubx.c **** }
  90:subsystems/gps/gps_ubx.c **** 
  91:subsystems/gps/gps_ubx.c **** 
  92:subsystems/gps/gps_ubx.c **** void gps_ubx_read_message(void) {
 313              		.loc 2 92 0
 314              		.cfi_startproc
 315              		@ args = 0, pretend = 0, frame = 0
 316              		@ frame_needed = 0, uses_anonymous_args = 0
 317 0000 F8B5     		push	{r3, r4, r5, r6, r7, lr}
 318              	.LCFI1:
 319              		.cfi_def_cfa_offset 24
 320              		.cfi_offset 3, -24
 321              		.cfi_offset 4, -20
 322              		.cfi_offset 5, -16
 323              		.cfi_offset 6, -12
 324              		.cfi_offset 7, -8
 325              		.cfi_offset 14, -4
  93:subsystems/gps/gps_ubx.c **** 
  94:subsystems/gps/gps_ubx.c ****   if (gps_ubx.msg_class == UBX_NAV_ID) {
 326              		.loc 2 94 0
 327 0002 974C     		ldr	r4, .L22+8
 328 0004 94F80861 		ldrb	r6, [r4, #264]	@ zero_extendqisi2
 329 0008 012E     		cmp	r6, #1
 330 000a 40F0E181 		bne	.L7
  95:subsystems/gps/gps_ubx.c ****     if (gps_ubx.msg_id == UBX_NAV_SOL_ID) {
 331              		.loc 2 95 0
 332 000e 94F80731 		ldrb	r3, [r4, #263]	@ zero_extendqisi2
 333 0012 062B     		cmp	r3, #6
 334 0014 40F0A980 		bne	.L10
  96:subsystems/gps/gps_ubx.c ****       /* get hardware clock ticks */
  97:subsystems/gps/gps_ubx.c ****       gps_time_sync.t0_ticks      = sys_time.nb_tick;
 335              		.loc 2 97 0
 336 0018 924D     		ldr	r5, .L22+12
  98:subsystems/gps/gps_ubx.c ****       gps_time_sync.t0_tow        = UBX_NAV_SOL_ITOW(gps_ubx.msg_buf);
 337              		.loc 2 98 0
 338 001a A27A     		ldrb	r2, [r4, #10]	@ zero_extendqisi2
  97:subsystems/gps/gps_ubx.c ****       gps_time_sync.t0_ticks      = sys_time.nb_tick;
 339              		.loc 2 97 0
 340 001c A868     		ldr	r0, [r5, #8]
 341 001e 924B     		ldr	r3, .L22+16
 342              		.loc 2 98 0
 343 0020 E17A     		ldrb	r1, [r4, #11]	@ zero_extendqisi2
 344 0022 1504     		lsls	r5, r2, #16
  97:subsystems/gps/gps_ubx.c ****       gps_time_sync.t0_ticks      = sys_time.nb_tick;
 345              		.loc 2 97 0
 346 0024 9860     		str	r0, [r3, #8]
 347              		.loc 2 98 0
 348 0026 45EA0162 		orr	r2, r5, r1, lsl #24
 349 002a 607A     		ldrb	r0, [r4, #9]	@ zero_extendqisi2
 350 002c 217A     		ldrb	r1, [r4, #8]	@ zero_extendqisi2
 351 002e 41EA0025 		orr	r5, r1, r0, lsl #8
  99:subsystems/gps/gps_ubx.c ****       gps_time_sync.t0_tow_frac   = UBX_NAV_SOL_Frac(gps_ubx.msg_buf);
 352              		.loc 2 99 0
 353 0032 A17B     		ldrb	r1, [r4, #14]	@ zero_extendqisi2
 354 0034 607B     		ldrb	r0, [r4, #13]	@ zero_extendqisi2
  98:subsystems/gps/gps_ubx.c ****       gps_time_sync.t0_tow        = UBX_NAV_SOL_ITOW(gps_ubx.msg_buf);
 355              		.loc 2 98 0
 356 0036 2A43     		orrs	r2, r2, r5
 357              		.loc 2 99 0
 358 0038 0D04     		lsls	r5, r1, #16
 359 003a 45EA0021 		orr	r1, r5, r0, lsl #8
 360 003e 207B     		ldrb	r0, [r4, #12]	@ zero_extendqisi2
 361 0040 E57B     		ldrb	r5, [r4, #15]	@ zero_extendqisi2
 362 0042 0143     		orrs	r1, r1, r0
 363 0044 41EA0561 		orr	r1, r1, r5, lsl #24
  98:subsystems/gps/gps_ubx.c ****       gps_time_sync.t0_tow        = UBX_NAV_SOL_ITOW(gps_ubx.msg_buf);
 364              		.loc 2 98 0
 365 0048 1A60     		str	r2, [r3, #0]
 366              		.loc 2 99 0
 367 004a 5960     		str	r1, [r3, #4]
 100:subsystems/gps/gps_ubx.c ****       gps.tow        = UBX_NAV_SOL_ITOW(gps_ubx.msg_buf);
 368              		.loc 2 100 0
 369 004c 874B     		ldr	r3, .L22+20
 101:subsystems/gps/gps_ubx.c ****       gps.week       = UBX_NAV_SOL_week(gps_ubx.msg_buf);
 370              		.loc 2 101 0
 371 004e 607C     		ldrb	r0, [r4, #17]	@ zero_extendqisi2
 100:subsystems/gps/gps_ubx.c ****       gps.tow        = UBX_NAV_SOL_ITOW(gps_ubx.msg_buf);
 372              		.loc 2 100 0
 373 0050 1A66     		str	r2, [r3, #96]
 374              		.loc 2 101 0
 375 0052 227C     		ldrb	r2, [r4, #16]	@ zero_extendqisi2
 102:subsystems/gps/gps_ubx.c ****       gps.fix        = UBX_NAV_SOL_GPSfix(gps_ubx.msg_buf);
 103:subsystems/gps/gps_ubx.c ****       gps.ecef_pos.x = UBX_NAV_SOL_ECEF_X(gps_ubx.msg_buf);
 376              		.loc 2 103 0
 377 0054 A17D     		ldrb	r1, [r4, #22]	@ zero_extendqisi2
 101:subsystems/gps/gps_ubx.c ****       gps.week       = UBX_NAV_SOL_week(gps_ubx.msg_buf);
 378              		.loc 2 101 0
 379 0056 42EA0025 		orr	r5, r2, r0, lsl #8
 380              		.loc 2 103 0
 381 005a 607D     		ldrb	r0, [r4, #21]	@ zero_extendqisi2
 101:subsystems/gps/gps_ubx.c ****       gps.week       = UBX_NAV_SOL_week(gps_ubx.msg_buf);
 382              		.loc 2 101 0
 383 005c A3F85C50 		strh	r5, [r3, #92]	@ movhi
 384              		.loc 2 103 0
 385 0060 0D04     		lsls	r5, r1, #16
 386 0062 45EA0021 		orr	r1, r5, r0, lsl #8
 387 0066 207D     		ldrb	r0, [r4, #20]	@ zero_extendqisi2
 388 0068 E57D     		ldrb	r5, [r4, #23]	@ zero_extendqisi2
 389 006a 0143     		orrs	r1, r1, r0
 390 006c 41EA0561 		orr	r1, r1, r5, lsl #24
 104:subsystems/gps/gps_ubx.c ****       gps.ecef_pos.y = UBX_NAV_SOL_ECEF_Y(gps_ubx.msg_buf);
 391              		.loc 2 104 0
 392 0070 A57E     		ldrb	r5, [r4, #26]	@ zero_extendqisi2
 393 0072 607E     		ldrb	r0, [r4, #25]	@ zero_extendqisi2
 103:subsystems/gps/gps_ubx.c ****       gps.ecef_pos.x = UBX_NAV_SOL_ECEF_X(gps_ubx.msg_buf);
 394              		.loc 2 103 0
 395 0074 1960     		str	r1, [r3, #0]
 396              		.loc 2 104 0
 397 0076 2904     		lsls	r1, r5, #16
 398 0078 41EA0025 		orr	r5, r1, r0, lsl #8
 399 007c 207E     		ldrb	r0, [r4, #24]	@ zero_extendqisi2
 400 007e E17E     		ldrb	r1, [r4, #27]	@ zero_extendqisi2
 401 0080 0543     		orrs	r5, r5, r0
 402 0082 45EA0165 		orr	r5, r5, r1, lsl #24
 105:subsystems/gps/gps_ubx.c ****       gps.ecef_pos.z = UBX_NAV_SOL_ECEF_Z(gps_ubx.msg_buf);
 403              		.loc 2 105 0
 404 0086 A17F     		ldrb	r1, [r4, #30]	@ zero_extendqisi2
 405 0088 607F     		ldrb	r0, [r4, #29]	@ zero_extendqisi2
 104:subsystems/gps/gps_ubx.c ****       gps.ecef_pos.y = UBX_NAV_SOL_ECEF_Y(gps_ubx.msg_buf);
 406              		.loc 2 104 0
 407 008a 5D60     		str	r5, [r3, #4]
 408              		.loc 2 105 0
 409 008c 0D04     		lsls	r5, r1, #16
 410 008e 45EA0021 		orr	r1, r5, r0, lsl #8
 411 0092 207F     		ldrb	r0, [r4, #28]	@ zero_extendqisi2
 412 0094 E57F     		ldrb	r5, [r4, #31]	@ zero_extendqisi2
 413 0096 0143     		orrs	r1, r1, r0
 414 0098 41EA0561 		orr	r1, r1, r5, lsl #24
 106:subsystems/gps/gps_ubx.c ****       gps.pacc       = UBX_NAV_SOL_Pacc(gps_ubx.msg_buf);
 415              		.loc 2 106 0
 416 009c 94F82250 		ldrb	r5, [r4, #34]	@ zero_extendqisi2
 417 00a0 94F82300 		ldrb	r0, [r4, #35]	@ zero_extendqisi2
 105:subsystems/gps/gps_ubx.c ****       gps.ecef_pos.z = UBX_NAV_SOL_ECEF_Z(gps_ubx.msg_buf);
 418              		.loc 2 105 0
 419 00a4 9960     		str	r1, [r3, #8]
 420              		.loc 2 106 0
 421 00a6 2904     		lsls	r1, r5, #16
 422 00a8 41EA0061 		orr	r1, r1, r0, lsl #24
 423 00ac 94F82150 		ldrb	r5, [r4, #33]	@ zero_extendqisi2
 424 00b0 94F82000 		ldrb	r0, [r4, #32]	@ zero_extendqisi2
 102:subsystems/gps/gps_ubx.c ****       gps.fix        = UBX_NAV_SOL_GPSfix(gps_ubx.msg_buf);
 425              		.loc 2 102 0
 426 00b4 A27C     		ldrb	r2, [r4, #18]	@ zero_extendqisi2
 427              		.loc 2 106 0
 428 00b6 40EA0525 		orr	r5, r0, r5, lsl #8
 429 00ba 2943     		orrs	r1, r1, r5
 102:subsystems/gps/gps_ubx.c ****       gps.fix        = UBX_NAV_SOL_GPSfix(gps_ubx.msg_buf);
 430              		.loc 2 102 0
 431 00bc 83F85B20 		strb	r2, [r3, #91]
 432              		.loc 2 106 0
 433 00c0 D964     		str	r1, [r3, #76]
 107:subsystems/gps/gps_ubx.c ****       gps.ecef_vel.x = UBX_NAV_SOL_ECEFVX(gps_ubx.msg_buf);
 434              		.loc 2 107 0
 435 00c2 94F82610 		ldrb	r1, [r4, #38]	@ zero_extendqisi2
 436 00c6 94F82500 		ldrb	r0, [r4, #37]	@ zero_extendqisi2
 437 00ca 0D04     		lsls	r5, r1, #16
 438 00cc 45EA0021 		orr	r1, r5, r0, lsl #8
 439 00d0 94F82400 		ldrb	r0, [r4, #36]	@ zero_extendqisi2
 440 00d4 94F82750 		ldrb	r5, [r4, #39]	@ zero_extendqisi2
 441 00d8 0143     		orrs	r1, r1, r0
 442 00da 41EA0561 		orr	r1, r1, r5, lsl #24
 108:subsystems/gps/gps_ubx.c ****       gps.ecef_vel.y = UBX_NAV_SOL_ECEFVY(gps_ubx.msg_buf);
 443              		.loc 2 108 0
 444 00de 94F82A50 		ldrb	r5, [r4, #42]	@ zero_extendqisi2
 445 00e2 94F82900 		ldrb	r0, [r4, #41]	@ zero_extendqisi2
 107:subsystems/gps/gps_ubx.c ****       gps.ecef_vel.x = UBX_NAV_SOL_ECEFVX(gps_ubx.msg_buf);
 446              		.loc 2 107 0
 447 00e6 D962     		str	r1, [r3, #44]
 448              		.loc 2 108 0
 449 00e8 2904     		lsls	r1, r5, #16
 450 00ea 41EA0025 		orr	r5, r1, r0, lsl #8
 451 00ee 94F82800 		ldrb	r0, [r4, #40]	@ zero_extendqisi2
 452 00f2 94F82B10 		ldrb	r1, [r4, #43]	@ zero_extendqisi2
 453 00f6 0543     		orrs	r5, r5, r0
 454 00f8 45EA0165 		orr	r5, r5, r1, lsl #24
 109:subsystems/gps/gps_ubx.c ****       gps.ecef_vel.z = UBX_NAV_SOL_ECEFVZ(gps_ubx.msg_buf);
 455              		.loc 2 109 0
 456 00fc 94F82E10 		ldrb	r1, [r4, #46]	@ zero_extendqisi2
 457 0100 94F82D00 		ldrb	r0, [r4, #45]	@ zero_extendqisi2
 108:subsystems/gps/gps_ubx.c ****       gps.ecef_vel.y = UBX_NAV_SOL_ECEFVY(gps_ubx.msg_buf);
 458              		.loc 2 108 0
 459 0104 1D63     		str	r5, [r3, #48]
 460              		.loc 2 109 0
 461 0106 0D04     		lsls	r5, r1, #16
 462 0108 45EA0021 		orr	r1, r5, r0, lsl #8
 463 010c 94F82C00 		ldrb	r0, [r4, #44]	@ zero_extendqisi2
 464 0110 94F82F50 		ldrb	r5, [r4, #47]	@ zero_extendqisi2
 465 0114 0143     		orrs	r1, r1, r0
 466 0116 41EA0561 		orr	r1, r1, r5, lsl #24
 110:subsystems/gps/gps_ubx.c ****       gps.sacc       = UBX_NAV_SOL_Sacc(gps_ubx.msg_buf);
 467              		.loc 2 110 0
 468 011a 94F83250 		ldrb	r5, [r4, #50]	@ zero_extendqisi2
 469 011e 94F83300 		ldrb	r0, [r4, #51]	@ zero_extendqisi2
 109:subsystems/gps/gps_ubx.c ****       gps.ecef_vel.z = UBX_NAV_SOL_ECEFVZ(gps_ubx.msg_buf);
 470              		.loc 2 109 0
 471 0122 5963     		str	r1, [r3, #52]
 472              		.loc 2 110 0
 473 0124 2904     		lsls	r1, r5, #16
 474 0126 41EA0061 		orr	r1, r1, r0, lsl #24
 475 012a 94F83150 		ldrb	r5, [r4, #49]	@ zero_extendqisi2
 476 012e 94F83000 		ldrb	r0, [r4, #48]	@ zero_extendqisi2
 477 0132 40EA0520 		orr	r0, r0, r5, lsl #8
 478 0136 0143     		orrs	r1, r1, r0
 479 0138 1965     		str	r1, [r3, #80]
 111:subsystems/gps/gps_ubx.c ****       gps.pdop       = UBX_NAV_SOL_PDOP(gps_ubx.msg_buf);
 480              		.loc 2 111 0
 481 013a 94F83500 		ldrb	r0, [r4, #53]	@ zero_extendqisi2
 482 013e 94F83410 		ldrb	r1, [r4, #52]	@ zero_extendqisi2
 483 0142 41EA0020 		orr	r0, r1, r0, lsl #8
 112:subsystems/gps/gps_ubx.c ****       gps.num_sv     = UBX_NAV_SOL_numSV(gps_ubx.msg_buf);
 484              		.loc 2 112 0
 485 0146 94F83710 		ldrb	r1, [r4, #55]	@ zero_extendqisi2
 111:subsystems/gps/gps_ubx.c ****       gps.pdop       = UBX_NAV_SOL_PDOP(gps_ubx.msg_buf);
 486              		.loc 2 111 0
 487 014a A3F85800 		strh	r0, [r3, #88]	@ movhi
 488              		.loc 2 112 0
 489 014e 83F85A10 		strb	r1, [r3, #90]
 113:subsystems/gps/gps_ubx.c **** #ifdef GPS_LED
 114:subsystems/gps/gps_ubx.c ****       if (gps.fix == GPS_FIX_3D) {
 115:subsystems/gps/gps_ubx.c ****         LED_ON(GPS_LED);
 490              		.loc 2 115 0
 491 0152 0421     		movs	r1, #4
 114:subsystems/gps/gps_ubx.c ****       if (gps.fix == GPS_FIX_3D) {
 492              		.loc 2 114 0
 493 0154 032A     		cmp	r2, #3
 494              		.loc 2 115 0
 495 0156 4648     		ldr	r0, .L22+24
 114:subsystems/gps/gps_ubx.c ****       if (gps.fix == GPS_FIX_3D) {
 496              		.loc 2 114 0
 497 0158 03D1     		bne	.L11
 116:subsystems/gps/gps_ubx.c ****       }
 117:subsystems/gps/gps_ubx.c ****       else {
 118:subsystems/gps/gps_ubx.c ****         LED_TOGGLE(GPS_LED);
 119:subsystems/gps/gps_ubx.c ****       }
 120:subsystems/gps/gps_ubx.c **** #endif
 121:subsystems/gps/gps_ubx.c ****     } else if (gps_ubx.msg_id == UBX_NAV_POSLLH_ID) {
 122:subsystems/gps/gps_ubx.c ****       gps.lla_pos.lat = RadOfDeg(UBX_NAV_POSLLH_LAT(gps_ubx.msg_buf));
 123:subsystems/gps/gps_ubx.c ****       gps.lla_pos.lon = RadOfDeg(UBX_NAV_POSLLH_LON(gps_ubx.msg_buf));
 124:subsystems/gps/gps_ubx.c ****       gps.lla_pos.alt = UBX_NAV_POSLLH_HEIGHT(gps_ubx.msg_buf);
 125:subsystems/gps/gps_ubx.c ****       gps.hmsl        = UBX_NAV_POSLLH_HMSL(gps_ubx.msg_buf);
 126:subsystems/gps/gps_ubx.c **** #if GPS_USE_LATLONG
 127:subsystems/gps/gps_ubx.c ****       /* Computes from (lat, long) in the referenced UTM zone */
 128:subsystems/gps/gps_ubx.c ****       struct LlaCoor_f lla_f;
 129:subsystems/gps/gps_ubx.c ****       lla_f.lat = ((float) gps.lla_pos.lat) / 1e7;
 130:subsystems/gps/gps_ubx.c ****       lla_f.lon = ((float) gps.lla_pos.lon) / 1e7;
 131:subsystems/gps/gps_ubx.c ****       struct UtmCoor_f utm_f;
 132:subsystems/gps/gps_ubx.c ****       utm_f.zone = nav_utm_zone0;
 133:subsystems/gps/gps_ubx.c ****       /* convert to utm */
 134:subsystems/gps/gps_ubx.c ****       utm_of_lla_f(&utm_f, &lla_f);
 135:subsystems/gps/gps_ubx.c ****       /* copy results of utm conversion */
 136:subsystems/gps/gps_ubx.c ****       gps.utm_pos.east = utm_f.east*100;
 137:subsystems/gps/gps_ubx.c ****       gps.utm_pos.north = utm_f.north*100;
 138:subsystems/gps/gps_ubx.c ****       gps.utm_pos.alt = gps.lla_pos.alt;
 139:subsystems/gps/gps_ubx.c ****       gps.utm_pos.zone = nav_utm_zone0;
 140:subsystems/gps/gps_ubx.c **** #else
 141:subsystems/gps/gps_ubx.c ****     }
 142:subsystems/gps/gps_ubx.c ****     else if (gps_ubx.msg_id == UBX_NAV_POSUTM_ID) {
 143:subsystems/gps/gps_ubx.c ****       gps.utm_pos.east = UBX_NAV_POSUTM_EAST(gps_ubx.msg_buf);
 144:subsystems/gps/gps_ubx.c ****       gps.utm_pos.north = UBX_NAV_POSUTM_NORTH(gps_ubx.msg_buf);
 145:subsystems/gps/gps_ubx.c ****       uint8_t hem = UBX_NAV_POSUTM_HEM(gps_ubx.msg_buf);
 146:subsystems/gps/gps_ubx.c ****       if (hem == UTM_HEM_SOUTH)
 147:subsystems/gps/gps_ubx.c ****         gps.utm_pos.north -= 1000000000; /* Subtract false northing: -10000km */
 148:subsystems/gps/gps_ubx.c ****       gps.utm_pos.alt = UBX_NAV_POSUTM_ALT(gps_ubx.msg_buf)*10;
 149:subsystems/gps/gps_ubx.c ****       gps.hmsl = gps.utm_pos.alt;
 150:subsystems/gps/gps_ubx.c ****       gps.lla_pos.alt = gps.utm_pos.alt; // FIXME: with UTM only you do not receive ellipsoid altit
 151:subsystems/gps/gps_ubx.c ****       gps.utm_pos.zone = UBX_NAV_POSUTM_ZONE(gps_ubx.msg_buf);
 152:subsystems/gps/gps_ubx.c **** #endif
 153:subsystems/gps/gps_ubx.c ****     }
 154:subsystems/gps/gps_ubx.c ****     else if (gps_ubx.msg_id == UBX_NAV_VELNED_ID) {
 155:subsystems/gps/gps_ubx.c ****       gps.speed_3d = UBX_NAV_VELNED_Speed(gps_ubx.msg_buf);
 156:subsystems/gps/gps_ubx.c ****       gps.gspeed = UBX_NAV_VELNED_GSpeed(gps_ubx.msg_buf);
 157:subsystems/gps/gps_ubx.c ****       gps.ned_vel.x = UBX_NAV_VELNED_VEL_N(gps_ubx.msg_buf);
 158:subsystems/gps/gps_ubx.c ****       gps.ned_vel.y = UBX_NAV_VELNED_VEL_E(gps_ubx.msg_buf);
 159:subsystems/gps/gps_ubx.c ****       gps.ned_vel.z = UBX_NAV_VELNED_VEL_D(gps_ubx.msg_buf);
 160:subsystems/gps/gps_ubx.c ****       // Ublox gives I4 heading in 1e-5 degrees, apparenty from 0 to 360 degrees (not -180 to 180)
 161:subsystems/gps/gps_ubx.c ****       // I4 max = 2^31 = 214 * 1e5 * 100 < 360 * 1e7: overflow on angles over 214 deg -> casted to 
 162:subsystems/gps/gps_ubx.c ****       // solution: First to radians, and then scale to 1e-7 radians
 163:subsystems/gps/gps_ubx.c ****       // First x 10 for loosing less resolution, then to radians, then multiply x 10 again
 164:subsystems/gps/gps_ubx.c ****       gps.course = (RadOfDeg(UBX_NAV_VELNED_Heading(gps_ubx.msg_buf)*10)) * 10;
 165:subsystems/gps/gps_ubx.c ****       gps.cacc = (RadOfDeg(UBX_NAV_VELNED_CAcc(gps_ubx.msg_buf)*10)) * 10;
 166:subsystems/gps/gps_ubx.c ****       gps.tow = UBX_NAV_VELNED_ITOW(gps_ubx.msg_buf);
 167:subsystems/gps/gps_ubx.c ****       gps_ubx.have_velned = 1;
 168:subsystems/gps/gps_ubx.c ****     }
 169:subsystems/gps/gps_ubx.c ****     else if (gps_ubx.msg_id == UBX_NAV_SVINFO_ID) {
 170:subsystems/gps/gps_ubx.c ****       gps.nb_channels = Min(UBX_NAV_SVINFO_NCH(gps_ubx.msg_buf), GPS_NB_CHANNELS);
 171:subsystems/gps/gps_ubx.c ****       uint8_t i;
 172:subsystems/gps/gps_ubx.c ****       for(i = 0; i < gps.nb_channels; i++) {
 173:subsystems/gps/gps_ubx.c ****         gps.svinfos[i].svid = UBX_NAV_SVINFO_SVID(gps_ubx.msg_buf, i);
 174:subsystems/gps/gps_ubx.c ****         gps.svinfos[i].flags = UBX_NAV_SVINFO_Flags(gps_ubx.msg_buf, i);
 175:subsystems/gps/gps_ubx.c ****         gps.svinfos[i].qi = UBX_NAV_SVINFO_QI(gps_ubx.msg_buf, i);
 176:subsystems/gps/gps_ubx.c ****         gps.svinfos[i].cno = UBX_NAV_SVINFO_CNO(gps_ubx.msg_buf, i);
 177:subsystems/gps/gps_ubx.c ****         gps.svinfos[i].elev = UBX_NAV_SVINFO_Elev(gps_ubx.msg_buf, i);
 178:subsystems/gps/gps_ubx.c ****         gps.svinfos[i].azim = UBX_NAV_SVINFO_Azim(gps_ubx.msg_buf, i);
 179:subsystems/gps/gps_ubx.c ****       }
 180:subsystems/gps/gps_ubx.c ****     }
 181:subsystems/gps/gps_ubx.c ****     else if (gps_ubx.msg_id == UBX_NAV_STATUS_ID) {
 182:subsystems/gps/gps_ubx.c ****       gps.fix = UBX_NAV_STATUS_GPSfix(gps_ubx.msg_buf);
 183:subsystems/gps/gps_ubx.c ****       gps_ubx.status_flags = UBX_NAV_STATUS_Flags(gps_ubx.msg_buf);
 184:subsystems/gps/gps_ubx.c ****       gps_ubx.sol_flags = UBX_NAV_SOL_Flags(gps_ubx.msg_buf);
 185:subsystems/gps/gps_ubx.c ****     }
 186:subsystems/gps/gps_ubx.c ****   }
 187:subsystems/gps/gps_ubx.c **** }
 498              		.loc 2 187 0
 499 015a BDE8F840 		pop	{r3, r4, r5, r6, r7, lr}
 115:subsystems/gps/gps_ubx.c ****         LED_ON(GPS_LED);
 500              		.loc 2 115 0
 501 015e FFF7FEBF 		b	gpio_clear
 502              	.LVL29:
 503              	.L11:
 504              		.loc 2 187 0
 505 0162 BDE8F840 		pop	{r3, r4, r5, r6, r7, lr}
 118:subsystems/gps/gps_ubx.c ****         LED_TOGGLE(GPS_LED);
 506              		.loc 2 118 0
 507 0166 FFF7FEBF 		b	gpio_toggle
 508              	.LVL30:
 509              	.L10:
 121:subsystems/gps/gps_ubx.c ****     } else if (gps_ubx.msg_id == UBX_NAV_POSLLH_ID) {
 510              		.loc 2 121 0
 511 016a 022B     		cmp	r3, #2
 512 016c 3FD1     		bne	.L12
 122:subsystems/gps/gps_ubx.c ****       gps.lla_pos.lat = RadOfDeg(UBX_NAV_POSLLH_LAT(gps_ubx.msg_buf));
 513              		.loc 2 122 0
 514 016e A27C     		ldrb	r2, [r4, #18]	@ zero_extendqisi2
 515 0170 607C     		ldrb	r0, [r4, #17]	@ zero_extendqisi2
 516 0172 1104     		lsls	r1, r2, #16
 517 0174 41EA0023 		orr	r3, r1, r0, lsl #8
 518 0178 207C     		ldrb	r0, [r4, #16]	@ zero_extendqisi2
 519 017a E27C     		ldrb	r2, [r4, #19]	@ zero_extendqisi2
 520 017c 0343     		orrs	r3, r3, r0
 521 017e 43EA0260 		orr	r0, r3, r2, lsl #24
 522 0182 FFF7FEFF 		bl	__aeabi_i2d
 523              	.LVL31:
 524 0186 34A3     		adr	r3, .L22
 525 0188 D3E90023 		ldrd	r2, [r3]
 526 018c FFF7FEFF 		bl	__aeabi_dmul
 527              	.LVL32:
 528 0190 FFF7FEFF 		bl	__aeabi_d2iz
 529              	.LVL33:
 530 0194 354D     		ldr	r5, .L22+20
 123:subsystems/gps/gps_ubx.c ****       gps.lla_pos.lon = RadOfDeg(UBX_NAV_POSLLH_LON(gps_ubx.msg_buf));
 531              		.loc 2 123 0
 532 0196 A37B     		ldrb	r3, [r4, #14]	@ zero_extendqisi2
 533 0198 617B     		ldrb	r1, [r4, #13]	@ zero_extendqisi2
 534 019a 227B     		ldrb	r2, [r4, #12]	@ zero_extendqisi2
 122:subsystems/gps/gps_ubx.c ****       gps.lla_pos.lat = RadOfDeg(UBX_NAV_POSLLH_LAT(gps_ubx.msg_buf));
 535              		.loc 2 122 0
 536 019c 2861     		str	r0, [r5, #16]
 123:subsystems/gps/gps_ubx.c ****       gps.lla_pos.lon = RadOfDeg(UBX_NAV_POSLLH_LON(gps_ubx.msg_buf));
 537              		.loc 2 123 0
 538 019e 1804     		lsls	r0, r3, #16
 539 01a0 40EA0121 		orr	r1, r0, r1, lsl #8
 540 01a4 E37B     		ldrb	r3, [r4, #15]	@ zero_extendqisi2
 541 01a6 1143     		orrs	r1, r1, r2
 542 01a8 41EA0360 		orr	r0, r1, r3, lsl #24
 543 01ac FFF7FEFF 		bl	__aeabi_i2d
 544              	.LVL34:
 545 01b0 29A3     		adr	r3, .L22
 546 01b2 D3E90023 		ldrd	r2, [r3]
 547 01b6 FFF7FEFF 		bl	__aeabi_dmul
 548              	.LVL35:
 549 01ba FFF7FEFF 		bl	__aeabi_d2iz
 550              	.LVL36:
 124:subsystems/gps/gps_ubx.c ****       gps.lla_pos.alt = UBX_NAV_POSLLH_HEIGHT(gps_ubx.msg_buf);
 551              		.loc 2 124 0
 552 01be A17D     		ldrb	r1, [r4, #22]	@ zero_extendqisi2
 123:subsystems/gps/gps_ubx.c ****       gps.lla_pos.lon = RadOfDeg(UBX_NAV_POSLLH_LON(gps_ubx.msg_buf));
 553              		.loc 2 123 0
 554 01c0 E860     		str	r0, [r5, #12]
 124:subsystems/gps/gps_ubx.c ****       gps.lla_pos.alt = UBX_NAV_POSLLH_HEIGHT(gps_ubx.msg_buf);
 555              		.loc 2 124 0
 556 01c2 607D     		ldrb	r0, [r4, #21]	@ zero_extendqisi2
 557 01c4 0A04     		lsls	r2, r1, #16
 558 01c6 42EA0023 		orr	r3, r2, r0, lsl #8
 559 01ca 207D     		ldrb	r0, [r4, #20]	@ zero_extendqisi2
 560 01cc E17D     		ldrb	r1, [r4, #23]	@ zero_extendqisi2
 561 01ce 0343     		orrs	r3, r3, r0
 562 01d0 43EA0162 		orr	r2, r3, r1, lsl #24
 125:subsystems/gps/gps_ubx.c ****       gps.hmsl        = UBX_NAV_POSLLH_HMSL(gps_ubx.msg_buf);
 563              		.loc 2 125 0
 564 01d4 A37E     		ldrb	r3, [r4, #26]	@ zero_extendqisi2
 565 01d6 607E     		ldrb	r0, [r4, #25]	@ zero_extendqisi2
 566 01d8 1904     		lsls	r1, r3, #16
 124:subsystems/gps/gps_ubx.c ****       gps.lla_pos.alt = UBX_NAV_POSLLH_HEIGHT(gps_ubx.msg_buf);
 567              		.loc 2 124 0
 568 01da 6A61     		str	r2, [r5, #20]
 125:subsystems/gps/gps_ubx.c ****       gps.hmsl        = UBX_NAV_POSLLH_HMSL(gps_ubx.msg_buf);
 569              		.loc 2 125 0
 570 01dc 227E     		ldrb	r2, [r4, #24]	@ zero_extendqisi2
 571 01de 41EA0020 		orr	r0, r1, r0, lsl #8
 572 01e2 E37E     		ldrb	r3, [r4, #27]	@ zero_extendqisi2
 573 01e4 1043     		orrs	r0, r0, r2
 574 01e6 40EA0361 		orr	r1, r0, r3, lsl #24
 575 01ea A962     		str	r1, [r5, #40]
 576 01ec F8BD     		pop	{r3, r4, r5, r6, r7, pc}
 577              	.L12:
 142:subsystems/gps/gps_ubx.c ****     else if (gps_ubx.msg_id == UBX_NAV_POSUTM_ID) {
 578              		.loc 2 142 0
 579 01ee 082B     		cmp	r3, #8
 580 01f0 42D1     		bne	.L13
 581              	.LBB53:
 143:subsystems/gps/gps_ubx.c ****       gps.utm_pos.east = UBX_NAV_POSUTM_EAST(gps_ubx.msg_buf);
 582              		.loc 2 143 0
 583 01f2 A07B     		ldrb	r0, [r4, #14]	@ zero_extendqisi2
 584 01f4 617B     		ldrb	r1, [r4, #13]	@ zero_extendqisi2
 585 01f6 0204     		lsls	r2, r0, #16
 586 01f8 42EA0120 		orr	r0, r2, r1, lsl #8
 587 01fc 217B     		ldrb	r1, [r4, #12]	@ zero_extendqisi2
 588 01fe E27B     		ldrb	r2, [r4, #15]	@ zero_extendqisi2
 589 0200 1A4B     		ldr	r3, .L22+20
 590 0202 0843     		orrs	r0, r0, r1
 144:subsystems/gps/gps_ubx.c ****       gps.utm_pos.north = UBX_NAV_POSUTM_NORTH(gps_ubx.msg_buf);
 591              		.loc 2 144 0
 592 0204 A17C     		ldrb	r1, [r4, #18]	@ zero_extendqisi2
 143:subsystems/gps/gps_ubx.c ****       gps.utm_pos.east = UBX_NAV_POSUTM_EAST(gps_ubx.msg_buf);
 593              		.loc 2 143 0
 594 0206 40EA0260 		orr	r0, r0, r2, lsl #24
 144:subsystems/gps/gps_ubx.c ****       gps.utm_pos.north = UBX_NAV_POSUTM_NORTH(gps_ubx.msg_buf);
 595              		.loc 2 144 0
 596 020a 627C     		ldrb	r2, [r4, #17]	@ zero_extendqisi2
 143:subsystems/gps/gps_ubx.c ****       gps.utm_pos.east = UBX_NAV_POSUTM_EAST(gps_ubx.msg_buf);
 597              		.loc 2 143 0
 598 020c D861     		str	r0, [r3, #28]
 144:subsystems/gps/gps_ubx.c ****       gps.utm_pos.north = UBX_NAV_POSUTM_NORTH(gps_ubx.msg_buf);
 599              		.loc 2 144 0
 600 020e 0804     		lsls	r0, r1, #16
 601 0210 40EA0221 		orr	r1, r0, r2, lsl #8
 602 0214 227C     		ldrb	r2, [r4, #16]	@ zero_extendqisi2
 603 0216 E07C     		ldrb	r0, [r4, #19]	@ zero_extendqisi2
 604 0218 1143     		orrs	r1, r1, r2
 146:subsystems/gps/gps_ubx.c ****       if (hem == UTM_HEM_SOUTH)
 605              		.loc 2 146 0
 606 021a 627E     		ldrb	r2, [r4, #25]	@ zero_extendqisi2
 144:subsystems/gps/gps_ubx.c ****       gps.utm_pos.north = UBX_NAV_POSUTM_NORTH(gps_ubx.msg_buf);
 607              		.loc 2 144 0
 608 021c 41EA0061 		orr	r1, r1, r0, lsl #24
 146:subsystems/gps/gps_ubx.c ****       if (hem == UTM_HEM_SOUTH)
 609              		.loc 2 146 0
 610 0220 012A     		cmp	r2, #1
 144:subsystems/gps/gps_ubx.c ****       gps.utm_pos.north = UBX_NAV_POSUTM_NORTH(gps_ubx.msg_buf);
 611              		.loc 2 144 0
 612 0222 9961     		str	r1, [r3, #24]
 613              	.LVL37:
 146:subsystems/gps/gps_ubx.c ****       if (hem == UTM_HEM_SOUTH)
 614              		.loc 2 146 0
 615 0224 02D1     		bne	.L14
 147:subsystems/gps/gps_ubx.c ****         gps.utm_pos.north -= 1000000000; /* Subtract false northing: -10000km */
 616              		.loc 2 147 0
 617 0226 1348     		ldr	r0, .L22+28
 618 0228 0918     		adds	r1, r1, r0
 619 022a 9961     		str	r1, [r3, #24]
 620              	.L14:
 148:subsystems/gps/gps_ubx.c ****       gps.utm_pos.alt = UBX_NAV_POSUTM_ALT(gps_ubx.msg_buf)*10;
 621              		.loc 2 148 0
 622 022c 0C4B     		ldr	r3, .L22+8
 623 022e 987D     		ldrb	r0, [r3, #22]	@ zero_extendqisi2
 624 0230 5A7D     		ldrb	r2, [r3, #21]	@ zero_extendqisi2
 625 0232 0104     		lsls	r1, r0, #16
 626 0234 41EA0220 		orr	r0, r1, r2, lsl #8
 627 0238 1A7D     		ldrb	r2, [r3, #20]	@ zero_extendqisi2
 628 023a D97D     		ldrb	r1, [r3, #23]	@ zero_extendqisi2
 629 023c 1043     		orrs	r0, r0, r2
 630 023e 40EA0160 		orr	r0, r0, r1, lsl #24
 631 0242 0A22     		movs	r2, #10
 632 0244 5043     		muls	r0, r2, r0
 633 0246 0949     		ldr	r1, .L22+20
 151:subsystems/gps/gps_ubx.c ****       gps.utm_pos.zone = UBX_NAV_POSUTM_ZONE(gps_ubx.msg_buf);
 634              		.loc 2 151 0
 635 0248 1B7E     		ldrb	r3, [r3, #24]	@ zero_extendqisi2
 148:subsystems/gps/gps_ubx.c ****       gps.utm_pos.alt = UBX_NAV_POSUTM_ALT(gps_ubx.msg_buf)*10;
 636              		.loc 2 148 0
 637 024a 0862     		str	r0, [r1, #32]
 149:subsystems/gps/gps_ubx.c ****       gps.hmsl = gps.utm_pos.alt;
 638              		.loc 2 149 0
 639 024c 8862     		str	r0, [r1, #40]
 150:subsystems/gps/gps_ubx.c ****       gps.lla_pos.alt = gps.utm_pos.alt; // FIXME: with UTM only you do not receive ellipsoid altit
 640              		.loc 2 150 0
 641 024e 4861     		str	r0, [r1, #20]
 151:subsystems/gps/gps_ubx.c ****       gps.utm_pos.zone = UBX_NAV_POSUTM_ZONE(gps_ubx.msg_buf);
 642              		.loc 2 151 0
 643 0250 81F82430 		strb	r3, [r1, #36]
 644 0254 F8BD     		pop	{r3, r4, r5, r6, r7, pc}
 645              	.L23:
 646 0256 00BF     		.align	3
 647              	.L22:
 648 0258 399D52A2 		.word	2723323193
 649 025c 46DF913F 		.word	1066524486
 650 0260 00000000 		.word	.LANCHOR0
 651 0264 00000000 		.word	sys_time
 652 0268 00000000 		.word	gps_time_sync
 653 026c 00000000 		.word	gps
 654 0270 00100140 		.word	1073811456
 655 0274 003665C4 		.word	-1000000000
 656              	.LVL38:
 657              	.L13:
 658              	.LBE53:
 154:subsystems/gps/gps_ubx.c ****     else if (gps_ubx.msg_id == UBX_NAV_VELNED_ID) {
 659              		.loc 2 154 0
 660 0278 122B     		cmp	r3, #18
 661 027a 76D1     		bne	.L15
 155:subsystems/gps/gps_ubx.c ****       gps.speed_3d = UBX_NAV_VELNED_Speed(gps_ubx.msg_buf);
 662              		.loc 2 155 0
 663 027c 627E     		ldrb	r2, [r4, #25]	@ zero_extendqisi2
 664 027e 237E     		ldrb	r3, [r4, #24]	@ zero_extendqisi2
 665 0280 574D     		ldr	r5, .L24+8
 666 0282 43EA0223 		orr	r3, r3, r2, lsl #8
 667 0286 A5F84630 		strh	r3, [r5, #70]	@ movhi
 156:subsystems/gps/gps_ubx.c ****       gps.gspeed = UBX_NAV_VELNED_GSpeed(gps_ubx.msg_buf);
 668              		.loc 2 156 0
 669 028a 627F     		ldrb	r2, [r4, #29]	@ zero_extendqisi2
 670 028c 237F     		ldrb	r3, [r4, #28]	@ zero_extendqisi2
 164:subsystems/gps/gps_ubx.c ****       gps.course = (RadOfDeg(UBX_NAV_VELNED_Heading(gps_ubx.msg_buf)*10)) * 10;
 671              		.loc 2 164 0
 672 028e 94F82200 		ldrb	r0, [r4, #34]	@ zero_extendqisi2
 156:subsystems/gps/gps_ubx.c ****       gps.gspeed = UBX_NAV_VELNED_GSpeed(gps_ubx.msg_buf);
 673              		.loc 2 156 0
 674 0292 43EA0223 		orr	r3, r3, r2, lsl #8
 675 0296 A5F84430 		strh	r3, [r5, #68]	@ movhi
 157:subsystems/gps/gps_ubx.c ****       gps.ned_vel.x = UBX_NAV_VELNED_VEL_N(gps_ubx.msg_buf);
 676              		.loc 2 157 0
 677 029a A37B     		ldrb	r3, [r4, #14]	@ zero_extendqisi2
 678 029c 627B     		ldrb	r2, [r4, #13]	@ zero_extendqisi2
 679 029e 1B04     		lsls	r3, r3, #16
 680 02a0 43EA0223 		orr	r3, r3, r2, lsl #8
 681 02a4 227B     		ldrb	r2, [r4, #12]	@ zero_extendqisi2
 164:subsystems/gps/gps_ubx.c ****       gps.course = (RadOfDeg(UBX_NAV_VELNED_Heading(gps_ubx.msg_buf)*10)) * 10;
 682              		.loc 2 164 0
 683 02a6 0004     		lsls	r0, r0, #16
 157:subsystems/gps/gps_ubx.c ****       gps.ned_vel.x = UBX_NAV_VELNED_VEL_N(gps_ubx.msg_buf);
 684              		.loc 2 157 0
 685 02a8 1343     		orrs	r3, r3, r2
 686 02aa E27B     		ldrb	r2, [r4, #15]	@ zero_extendqisi2
 164:subsystems/gps/gps_ubx.c ****       gps.course = (RadOfDeg(UBX_NAV_VELNED_Heading(gps_ubx.msg_buf)*10)) * 10;
 687              		.loc 2 164 0
 688 02ac 0A27     		movs	r7, #10
 157:subsystems/gps/gps_ubx.c ****       gps.ned_vel.x = UBX_NAV_VELNED_VEL_N(gps_ubx.msg_buf);
 689              		.loc 2 157 0
 690 02ae 43EA0263 		orr	r3, r3, r2, lsl #24
 691 02b2 AB63     		str	r3, [r5, #56]
 158:subsystems/gps/gps_ubx.c ****       gps.ned_vel.y = UBX_NAV_VELNED_VEL_E(gps_ubx.msg_buf);
 692              		.loc 2 158 0
 693 02b4 A37C     		ldrb	r3, [r4, #18]	@ zero_extendqisi2
 694 02b6 627C     		ldrb	r2, [r4, #17]	@ zero_extendqisi2
 695 02b8 1B04     		lsls	r3, r3, #16
 696 02ba 43EA0223 		orr	r3, r3, r2, lsl #8
 697 02be 227C     		ldrb	r2, [r4, #16]	@ zero_extendqisi2
 698 02c0 1343     		orrs	r3, r3, r2
 699 02c2 E27C     		ldrb	r2, [r4, #19]	@ zero_extendqisi2
 700 02c4 43EA0263 		orr	r3, r3, r2, lsl #24
 701 02c8 EB63     		str	r3, [r5, #60]
 159:subsystems/gps/gps_ubx.c ****       gps.ned_vel.z = UBX_NAV_VELNED_VEL_D(gps_ubx.msg_buf);
 702              		.loc 2 159 0
 703 02ca A37D     		ldrb	r3, [r4, #22]	@ zero_extendqisi2
 704 02cc 627D     		ldrb	r2, [r4, #21]	@ zero_extendqisi2
 705 02ce 1B04     		lsls	r3, r3, #16
 706 02d0 43EA0223 		orr	r3, r3, r2, lsl #8
 707 02d4 227D     		ldrb	r2, [r4, #20]	@ zero_extendqisi2
 708 02d6 1343     		orrs	r3, r3, r2
 709 02d8 E27D     		ldrb	r2, [r4, #23]	@ zero_extendqisi2
 710 02da 43EA0263 		orr	r3, r3, r2, lsl #24
 711 02de 2B64     		str	r3, [r5, #64]
 164:subsystems/gps/gps_ubx.c ****       gps.course = (RadOfDeg(UBX_NAV_VELNED_Heading(gps_ubx.msg_buf)*10)) * 10;
 712              		.loc 2 164 0
 713 02e0 94F82130 		ldrb	r3, [r4, #33]	@ zero_extendqisi2
 714 02e4 40EA0320 		orr	r0, r0, r3, lsl #8
 715 02e8 94F82030 		ldrb	r3, [r4, #32]	@ zero_extendqisi2
 716 02ec 1843     		orrs	r0, r0, r3
 717 02ee 94F82330 		ldrb	r3, [r4, #35]	@ zero_extendqisi2
 718 02f2 40EA0360 		orr	r0, r0, r3, lsl #24
 719 02f6 7843     		muls	r0, r7, r0
 720 02f8 FFF7FEFF 		bl	__aeabi_i2d
 721              	.LVL39:
 722 02fc 36A3     		adr	r3, .L24
 723 02fe D3E90023 		ldrd	r2, [r3]
 724 0302 FFF7FEFF 		bl	__aeabi_dmul
 725              	.LVL40:
 726 0306 0022     		movs	r2, #0
 727 0308 364B     		ldr	r3, .L24+12
 728 030a FFF7FEFF 		bl	__aeabi_dmul
 729              	.LVL41:
 730 030e FFF7FEFF 		bl	__aeabi_d2iz
 731              	.LVL42:
 732 0312 A864     		str	r0, [r5, #72]
 165:subsystems/gps/gps_ubx.c ****       gps.cacc = (RadOfDeg(UBX_NAV_VELNED_CAcc(gps_ubx.msg_buf)*10)) * 10;
 733              		.loc 2 165 0
 734 0314 94F82A00 		ldrb	r0, [r4, #42]	@ zero_extendqisi2
 735 0318 94F82B30 		ldrb	r3, [r4, #43]	@ zero_extendqisi2
 736 031c 0004     		lsls	r0, r0, #16
 737 031e 94F82920 		ldrb	r2, [r4, #41]	@ zero_extendqisi2
 738 0322 40EA0360 		orr	r0, r0, r3, lsl #24
 739 0326 94F82830 		ldrb	r3, [r4, #40]	@ zero_extendqisi2
 740 032a 43EA0223 		orr	r3, r3, r2, lsl #8
 741 032e 1843     		orrs	r0, r0, r3
 742 0330 7843     		muls	r0, r7, r0
 743 0332 FFF7FEFF 		bl	__aeabi_ui2d
 744              	.LVL43:
 745 0336 28A3     		adr	r3, .L24
 746 0338 D3E90023 		ldrd	r2, [r3]
 747 033c FFF7FEFF 		bl	__aeabi_dmul
 748              	.LVL44:
 749 0340 0022     		movs	r2, #0
 750 0342 284B     		ldr	r3, .L24+12
 751 0344 FFF7FEFF 		bl	__aeabi_dmul
 752              	.LVL45:
 753 0348 FFF7FEFF 		bl	__aeabi_d2uiz
 754              	.LVL46:
 166:subsystems/gps/gps_ubx.c ****       gps.tow = UBX_NAV_VELNED_ITOW(gps_ubx.msg_buf);
 755              		.loc 2 166 0
 756 034c A37A     		ldrb	r3, [r4, #10]	@ zero_extendqisi2
 757 034e E27A     		ldrb	r2, [r4, #11]	@ zero_extendqisi2
 758 0350 1B04     		lsls	r3, r3, #16
 759 0352 43EA0263 		orr	r3, r3, r2, lsl #24
 760 0356 617A     		ldrb	r1, [r4, #9]	@ zero_extendqisi2
 761 0358 227A     		ldrb	r2, [r4, #8]	@ zero_extendqisi2
 165:subsystems/gps/gps_ubx.c ****       gps.cacc = (RadOfDeg(UBX_NAV_VELNED_CAcc(gps_ubx.msg_buf)*10)) * 10;
 762              		.loc 2 165 0
 763 035a 6865     		str	r0, [r5, #84]
 166:subsystems/gps/gps_ubx.c ****       gps.tow = UBX_NAV_VELNED_ITOW(gps_ubx.msg_buf);
 764              		.loc 2 166 0
 765 035c 42EA0122 		orr	r2, r2, r1, lsl #8
 766 0360 1343     		orrs	r3, r3, r2
 767 0362 2B66     		str	r3, [r5, #96]
 167:subsystems/gps/gps_ubx.c ****       gps_ubx.have_velned = 1;
 768              		.loc 2 167 0
 769 0364 84F81561 		strb	r6, [r4, #277]
 770 0368 F8BD     		pop	{r3, r4, r5, r6, r7, pc}
 771              	.L15:
 169:subsystems/gps/gps_ubx.c ****     else if (gps_ubx.msg_id == UBX_NAV_SVINFO_ID) {
 772              		.loc 2 169 0
 773 036a 302B     		cmp	r3, #48
 774 036c 24D1     		bne	.L16
 775              	.LBB54:
 170:subsystems/gps/gps_ubx.c ****       gps.nb_channels = Min(UBX_NAV_SVINFO_NCH(gps_ubx.msg_buf), GPS_NB_CHANNELS);
 776              		.loc 2 170 0
 777 036e 217B     		ldrb	r1, [r4, #12]	@ zero_extendqisi2
 778 0370 1B4B     		ldr	r3, .L24+8
 779 0372 1029     		cmp	r1, #16
 780 0374 28BF     		it	cs
 781 0376 1021     		movcs	r1, #16
 782 0378 83F86410 		strb	r1, [r3, #100]
 783              	.LVL47:
 172:subsystems/gps/gps_ubx.c ****       for(i = 0; i < gps.nb_channels; i++) {
 784              		.loc 2 172 0
 785 037c 0022     		movs	r2, #0
 786              	.LVL48:
 787              	.L17:
 788 037e 0C34     		adds	r4, r4, #12
 789 0380 0833     		adds	r3, r3, #8
 172:subsystems/gps/gps_ubx.c ****       for(i = 0; i < gps.nb_channels; i++) {
 790              		.loc 2 172 0 is_stmt 0 discriminator 1
 791 0382 8A42     		cmp	r2, r1
 792 0384 17D0     		beq	.L21
 793              	.L18:
 173:subsystems/gps/gps_ubx.c ****         gps.svinfos[i].svid = UBX_NAV_SVINFO_SVID(gps_ubx.msg_buf, i);
 794              		.loc 2 173 0 is_stmt 1 discriminator 2
 795 0386 6579     		ldrb	r5, [r4, #5]	@ zero_extendqisi2
 174:subsystems/gps/gps_ubx.c ****         gps.svinfos[i].flags = UBX_NAV_SVINFO_Flags(gps_ubx.msg_buf, i);
 796              		.loc 2 174 0 discriminator 2
 797 0388 A079     		ldrb	r0, [r4, #6]	@ zero_extendqisi2
 173:subsystems/gps/gps_ubx.c ****         gps.svinfos[i].svid = UBX_NAV_SVINFO_SVID(gps_ubx.msg_buf, i);
 798              		.loc 2 173 0 discriminator 2
 799 038a 83F85E50 		strb	r5, [r3, #94]
 175:subsystems/gps/gps_ubx.c ****         gps.svinfos[i].qi = UBX_NAV_SVINFO_QI(gps_ubx.msg_buf, i);
 800              		.loc 2 175 0 discriminator 2
 801 038e E579     		ldrb	r5, [r4, #7]	@ zero_extendqisi2
 174:subsystems/gps/gps_ubx.c ****         gps.svinfos[i].flags = UBX_NAV_SVINFO_Flags(gps_ubx.msg_buf, i);
 802              		.loc 2 174 0 discriminator 2
 803 0390 83F85F00 		strb	r0, [r3, #95]
 175:subsystems/gps/gps_ubx.c ****         gps.svinfos[i].qi = UBX_NAV_SVINFO_QI(gps_ubx.msg_buf, i);
 804              		.loc 2 175 0 discriminator 2
 805 0394 83F86050 		strb	r5, [r3, #96]
 176:subsystems/gps/gps_ubx.c ****         gps.svinfos[i].cno = UBX_NAV_SVINFO_CNO(gps_ubx.msg_buf, i);
 806              		.loc 2 176 0 discriminator 2
 807 0398 207A     		ldrb	r0, [r4, #8]	@ zero_extendqisi2
 177:subsystems/gps/gps_ubx.c ****         gps.svinfos[i].elev = UBX_NAV_SVINFO_Elev(gps_ubx.msg_buf, i);
 808              		.loc 2 177 0 discriminator 2
 809 039a 657A     		ldrb	r5, [r4, #9]	@ zero_extendqisi2
 176:subsystems/gps/gps_ubx.c ****         gps.svinfos[i].cno = UBX_NAV_SVINFO_CNO(gps_ubx.msg_buf, i);
 810              		.loc 2 176 0 discriminator 2
 811 039c 83F86100 		strb	r0, [r3, #97]
 177:subsystems/gps/gps_ubx.c ****         gps.svinfos[i].elev = UBX_NAV_SVINFO_Elev(gps_ubx.msg_buf, i);
 812              		.loc 2 177 0 discriminator 2
 813 03a0 83F86250 		strb	r5, [r3, #98]
 178:subsystems/gps/gps_ubx.c ****         gps.svinfos[i].azim = UBX_NAV_SVINFO_Azim(gps_ubx.msg_buf, i);
 814              		.loc 2 178 0 discriminator 2
 815 03a4 A07A     		ldrb	r0, [r4, #10]	@ zero_extendqisi2
 816 03a6 E57A     		ldrb	r5, [r4, #11]	@ zero_extendqisi2
 172:subsystems/gps/gps_ubx.c ****       for(i = 0; i < gps.nb_channels; i++) {
 817              		.loc 2 172 0 discriminator 2
 818 03a8 0132     		adds	r2, r2, #1
 819              	.LVL49:
 178:subsystems/gps/gps_ubx.c ****         gps.svinfos[i].azim = UBX_NAV_SVINFO_Azim(gps_ubx.msg_buf, i);
 820              		.loc 2 178 0 discriminator 2
 821 03aa 40EA0520 		orr	r0, r0, r5, lsl #8
 822 03ae A3F86400 		strh	r0, [r3, #100]	@ movhi
 172:subsystems/gps/gps_ubx.c ****       for(i = 0; i < gps.nb_channels; i++) {
 823              		.loc 2 172 0 discriminator 2
 824 03b2 D2B2     		uxtb	r2, r2
 825              	.LVL50:
 826 03b4 E3E7     		b	.L17
 827              	.L21:
 828 03b6 F8BD     		pop	{r3, r4, r5, r6, r7, pc}
 829              	.LVL51:
 830              	.L16:
 831              	.LBE54:
 181:subsystems/gps/gps_ubx.c ****     else if (gps_ubx.msg_id == UBX_NAV_STATUS_ID) {
 832              		.loc 2 181 0
 833 03b8 032B     		cmp	r3, #3
 834 03ba 09D1     		bne	.L7
 182:subsystems/gps/gps_ubx.c ****       gps.fix = UBX_NAV_STATUS_GPSfix(gps_ubx.msg_buf);
 835              		.loc 2 182 0
 836 03bc 227B     		ldrb	r2, [r4, #12]	@ zero_extendqisi2
 837 03be 0848     		ldr	r0, .L24+8
 183:subsystems/gps/gps_ubx.c ****       gps_ubx.status_flags = UBX_NAV_STATUS_Flags(gps_ubx.msg_buf);
 838              		.loc 2 183 0
 839 03c0 617B     		ldrb	r1, [r4, #13]	@ zero_extendqisi2
 184:subsystems/gps/gps_ubx.c ****       gps_ubx.sol_flags = UBX_NAV_SOL_Flags(gps_ubx.msg_buf);
 840              		.loc 2 184 0
 841 03c2 E37C     		ldrb	r3, [r4, #19]	@ zero_extendqisi2
 182:subsystems/gps/gps_ubx.c ****       gps.fix = UBX_NAV_STATUS_GPSfix(gps_ubx.msg_buf);
 842              		.loc 2 182 0
 843 03c4 80F85B20 		strb	r2, [r0, #91]
 183:subsystems/gps/gps_ubx.c ****       gps_ubx.status_flags = UBX_NAV_STATUS_Flags(gps_ubx.msg_buf);
 844              		.loc 2 183 0
 845 03c8 84F81311 		strb	r1, [r4, #275]
 184:subsystems/gps/gps_ubx.c ****       gps_ubx.sol_flags = UBX_NAV_SOL_Flags(gps_ubx.msg_buf);
 846              		.loc 2 184 0
 847 03cc 84F81431 		strb	r3, [r4, #276]
 848              	.L7:
 849 03d0 F8BD     		pop	{r3, r4, r5, r6, r7, pc}
 850              	.L25:
 851 03d2 00BFAFF3 		.align	3
 851      0080
 852              	.L24:
 853 03d8 399D52A2 		.word	2723323193
 854 03dc 46DF913F 		.word	1066524486
 855 03e0 00000000 		.word	gps
 856 03e4 00002440 		.word	1076101120
 857              		.cfi_endproc
 858              	.LFE21:
 860              		.section	.text.gps_ubx_parse,"ax",%progbits
 861              		.align	1
 862              		.global	gps_ubx_parse
 863              		.thumb
 864              		.thumb_func
 866              	gps_ubx_parse:
 867              	.LFB22:
 188:subsystems/gps/gps_ubx.c **** 
 189:subsystems/gps/gps_ubx.c **** 
 190:subsystems/gps/gps_ubx.c **** /* UBX parsing */
 191:subsystems/gps/gps_ubx.c **** void gps_ubx_parse( uint8_t c ) {
 868              		.loc 2 191 0
 869              		.cfi_startproc
 870              		@ args = 0, pretend = 0, frame = 0
 871              		@ frame_needed = 0, uses_anonymous_args = 0
 872              	.LVL52:
 873 0000 10B5     		push	{r4, lr}
 874              	.LCFI2:
 875              		.cfi_def_cfa_offset 8
 876              		.cfi_offset 4, -8
 877              		.cfi_offset 14, -4
 192:subsystems/gps/gps_ubx.c ****   if (gps_ubx.status < GOT_PAYLOAD) {
 878              		.loc 2 192 0
 879 0002 3D4B     		ldr	r3, .L53
 880 0004 93F80921 		ldrb	r2, [r3, #265]	@ zero_extendqisi2
 881 0008 062A     		cmp	r2, #6
 882 000a 0AD8     		bhi	.L27
 193:subsystems/gps/gps_ubx.c ****     gps_ubx.ck_a += c;
 883              		.loc 2 193 0
 884 000c 93F80D11 		ldrb	r1, [r3, #269]	@ zero_extendqisi2
 885 0010 4418     		adds	r4, r0, r1
 886 0012 E1B2     		uxtb	r1, r4
 194:subsystems/gps/gps_ubx.c ****     gps_ubx.ck_b += gps_ubx.ck_a;
 887              		.loc 2 194 0
 888 0014 93F80E41 		ldrb	r4, [r3, #270]	@ zero_extendqisi2
 193:subsystems/gps/gps_ubx.c ****     gps_ubx.ck_a += c;
 889              		.loc 2 193 0
 890 0018 83F80D11 		strb	r1, [r3, #269]
 891              		.loc 2 194 0
 892 001c 0919     		adds	r1, r1, r4
 893 001e 83F80E11 		strb	r1, [r3, #270]
 894              	.L27:
 195:subsystems/gps/gps_ubx.c ****   }
 196:subsystems/gps/gps_ubx.c ****   switch (gps_ubx.status) {
 895              		.loc 2 196 0
 896 0022 082A     		cmp	r2, #8
 897 0024 59D8     		bhi	.L28
 898 0026 DFE802F0 		tbb	[pc, r2]
 899              	.L38:
 900 002a 05       		.byte	(.L29-.L38)/2
 901 002b 09       		.byte	(.L30-.L38)/2
 902 002c 15       		.byte	(.L31-.L38)/2
 903 002d 1E       		.byte	(.L32-.L38)/2
 904 002e 23       		.byte	(.L33-.L38)/2
 905 002f 28       		.byte	(.L34-.L38)/2
 906 0030 38       		.byte	(.L35-.L38)/2
 907 0031 47       		.byte	(.L36-.L38)/2
 908 0032 4E       		.byte	(.L37-.L38)/2
 909 0033 00       		.align	1
 910              	.L29:
 197:subsystems/gps/gps_ubx.c ****   case UNINIT:
 198:subsystems/gps/gps_ubx.c ****     if (c == UBX_SYNC1)
 911              		.loc 2 198 0
 912 0034 B528     		cmp	r0, #181
 913 0036 5ED1     		bne	.L26
 199:subsystems/gps/gps_ubx.c ****       gps_ubx.status++;
 914              		.loc 2 199 0
 915 0038 0121     		movs	r1, #1
 916 003a 59E0     		b	.L51
 917              	.L30:
 200:subsystems/gps/gps_ubx.c ****     break;
 201:subsystems/gps/gps_ubx.c ****   case GOT_SYNC1:
 202:subsystems/gps/gps_ubx.c ****     if (c != UBX_SYNC2) {
 918              		.loc 2 202 0
 919 003c 6228     		cmp	r0, #98
 920 003e 2E4B     		ldr	r3, .L53
 921 0040 01D0     		beq	.L41
 203:subsystems/gps/gps_ubx.c ****       gps_ubx.error_last = GPS_UBX_ERR_OUT_OF_SYNC;
 922              		.loc 2 203 0
 923 0042 0521     		movs	r1, #5
 924 0044 4BE0     		b	.L49
 925              	.L41:
 204:subsystems/gps/gps_ubx.c ****       goto error;
 205:subsystems/gps/gps_ubx.c ****     }
 206:subsystems/gps/gps_ubx.c ****     gps_ubx.ck_a = 0;
 926              		.loc 2 206 0
 927 0046 0020     		movs	r0, #0
 928              	.LVL53:
 929 0048 83F80D01 		strb	r0, [r3, #269]
 207:subsystems/gps/gps_ubx.c ****     gps_ubx.ck_b = 0;
 930              		.loc 2 207 0
 931 004c 83F80E01 		strb	r0, [r3, #270]
 208:subsystems/gps/gps_ubx.c ****     gps_ubx.status++;
 932              		.loc 2 208 0
 933 0050 0221     		movs	r1, #2
 934 0052 4EE0     		b	.L50
 935              	.LVL54:
 936              	.L31:
 209:subsystems/gps/gps_ubx.c ****     break;
 210:subsystems/gps/gps_ubx.c ****   case GOT_SYNC2:
 211:subsystems/gps/gps_ubx.c ****     if (gps_ubx.msg_available) {
 937              		.loc 2 211 0
 938 0054 284B     		ldr	r3, .L53
 939 0056 1A78     		ldrb	r2, [r3, #0]	@ zero_extendqisi2
 940 0058 0AB1     		cbz	r2, .L43
 212:subsystems/gps/gps_ubx.c ****       /* Previous message has not yet been parsed: discard this one */
 213:subsystems/gps/gps_ubx.c ****       gps_ubx.error_last = GPS_UBX_ERR_OVERRUN;
 941              		.loc 2 213 0
 942 005a 0121     		movs	r1, #1
 943 005c 3FE0     		b	.L49
 944              	.L43:
 214:subsystems/gps/gps_ubx.c ****       goto error;
 215:subsystems/gps/gps_ubx.c ****     }
 216:subsystems/gps/gps_ubx.c ****     gps_ubx.msg_class = c;
 945              		.loc 2 216 0
 946 005e 83F80801 		strb	r0, [r3, #264]
 217:subsystems/gps/gps_ubx.c ****     gps_ubx.status++;
 947              		.loc 2 217 0
 948 0062 0321     		movs	r1, #3
 949 0064 45E0     		b	.L50
 950              	.L32:
 218:subsystems/gps/gps_ubx.c ****     break;
 219:subsystems/gps/gps_ubx.c ****   case GOT_CLASS:
 220:subsystems/gps/gps_ubx.c ****     gps_ubx.msg_id = c;
 951              		.loc 2 220 0
 952 0066 244B     		ldr	r3, .L53
 221:subsystems/gps/gps_ubx.c ****     gps_ubx.status++;
 953              		.loc 2 221 0
 954 0068 0421     		movs	r1, #4
 220:subsystems/gps/gps_ubx.c ****     gps_ubx.msg_id = c;
 955              		.loc 2 220 0
 956 006a 83F80701 		strb	r0, [r3, #263]
 957 006e 40E0     		b	.L50
 958              	.L33:
 222:subsystems/gps/gps_ubx.c ****     break;
 223:subsystems/gps/gps_ubx.c ****   case GOT_ID:
 224:subsystems/gps/gps_ubx.c ****     gps_ubx.len = c;
 959              		.loc 2 224 0
 960 0070 214B     		ldr	r3, .L53
 225:subsystems/gps/gps_ubx.c ****     gps_ubx.status++;
 961              		.loc 2 225 0
 962 0072 0521     		movs	r1, #5
 224:subsystems/gps/gps_ubx.c ****     gps_ubx.len = c;
 963              		.loc 2 224 0
 964 0074 A3F80A01 		strh	r0, [r3, #266]	@ movhi
 965 0078 3BE0     		b	.L50
 966              	.L34:
 226:subsystems/gps/gps_ubx.c ****     break;
 227:subsystems/gps/gps_ubx.c ****   case GOT_LEN1:
 228:subsystems/gps/gps_ubx.c ****     gps_ubx.len |= (c<<8);
 967              		.loc 2 228 0
 968 007a 1F4B     		ldr	r3, .L53
 969 007c B3F80A21 		ldrh	r2, [r3, #266]
 970 0080 42EA0020 		orr	r0, r2, r0, lsl #8
 971              	.LVL55:
 229:subsystems/gps/gps_ubx.c ****     if (gps_ubx.len > GPS_UBX_MAX_PAYLOAD) {
 972              		.loc 2 229 0
 973 0084 FF28     		cmp	r0, #255
 228:subsystems/gps/gps_ubx.c ****     gps_ubx.len |= (c<<8);
 974              		.loc 2 228 0
 975 0086 A3F80A01 		strh	r0, [r3, #266]	@ movhi
 976              		.loc 2 229 0
 977 008a 01D9     		bls	.L44
 230:subsystems/gps/gps_ubx.c ****       gps_ubx.error_last = GPS_UBX_ERR_MSG_TOO_LONG;
 978              		.loc 2 230 0
 979 008c 0221     		movs	r1, #2
 980 008e 26E0     		b	.L49
 981              	.L44:
 231:subsystems/gps/gps_ubx.c ****       goto error;
 232:subsystems/gps/gps_ubx.c ****     }
 233:subsystems/gps/gps_ubx.c ****     gps_ubx.msg_idx = 0;
 982              		.loc 2 233 0
 983 0090 0021     		movs	r1, #0
 984 0092 83F80C11 		strb	r1, [r3, #268]
 234:subsystems/gps/gps_ubx.c ****     gps_ubx.status++;
 985              		.loc 2 234 0
 986 0096 0621     		movs	r1, #6
 987 0098 2BE0     		b	.L50
 988              	.LVL56:
 989              	.L35:
 235:subsystems/gps/gps_ubx.c ****     break;
 236:subsystems/gps/gps_ubx.c ****   case GOT_LEN2:
 237:subsystems/gps/gps_ubx.c ****     gps_ubx.msg_buf[gps_ubx.msg_idx] = c;
 990              		.loc 2 237 0
 991 009a 174B     		ldr	r3, .L53
 992 009c 93F80C21 		ldrb	r2, [r3, #268]	@ zero_extendqisi2
 993 00a0 9918     		adds	r1, r3, r2
 994 00a2 0872     		strb	r0, [r1, #8]
 238:subsystems/gps/gps_ubx.c ****     gps_ubx.msg_idx++;
 995              		.loc 2 238 0
 996 00a4 501C     		adds	r0, r2, #1
 997              	.LVL57:
 239:subsystems/gps/gps_ubx.c ****     if (gps_ubx.msg_idx >= gps_ubx.len) {
 998              		.loc 2 239 0
 999 00a6 B3F80A11 		ldrh	r1, [r3, #266]
 1000              	.LVL58:
 238:subsystems/gps/gps_ubx.c ****     gps_ubx.msg_idx++;
 1001              		.loc 2 238 0
 1002 00aa C2B2     		uxtb	r2, r0
 1003              	.LVL59:
 1004              		.loc 2 239 0
 1005 00ac 9142     		cmp	r1, r2
 238:subsystems/gps/gps_ubx.c ****     gps_ubx.msg_idx++;
 1006              		.loc 2 238 0
 1007 00ae 83F80C21 		strb	r2, [r3, #268]
 1008              		.loc 2 239 0
 1009 00b2 20D8     		bhi	.L26
 240:subsystems/gps/gps_ubx.c ****       gps_ubx.status++;
 1010              		.loc 2 240 0
 1011 00b4 0721     		movs	r1, #7
 1012 00b6 1CE0     		b	.L50
 1013              	.LVL60:
 1014              	.L36:
 241:subsystems/gps/gps_ubx.c ****     }
 242:subsystems/gps/gps_ubx.c ****     break;
 243:subsystems/gps/gps_ubx.c ****   case GOT_PAYLOAD:
 244:subsystems/gps/gps_ubx.c ****     if (c != gps_ubx.ck_a) {
 1015              		.loc 2 244 0
 1016 00b8 0F4B     		ldr	r3, .L53
 1017 00ba 93F80D11 		ldrb	r1, [r3, #269]	@ zero_extendqisi2
 1018 00be 8142     		cmp	r1, r0
 1019 00c0 06D1     		bne	.L52
 1020              	.L46:
 245:subsystems/gps/gps_ubx.c ****       gps_ubx.error_last = GPS_UBX_ERR_CHECKSUM;
 246:subsystems/gps/gps_ubx.c ****       goto error;
 247:subsystems/gps/gps_ubx.c ****     }
 248:subsystems/gps/gps_ubx.c ****     gps_ubx.status++;
 1021              		.loc 2 248 0
 1022 00c2 0821     		movs	r1, #8
 1023 00c4 15E0     		b	.L50
 1024              	.L37:
 249:subsystems/gps/gps_ubx.c ****     break;
 250:subsystems/gps/gps_ubx.c ****   case GOT_CHECKSUM1:
 251:subsystems/gps/gps_ubx.c ****     if (c != gps_ubx.ck_b) {
 1025              		.loc 2 251 0
 1026 00c6 0C4B     		ldr	r3, .L53
 1027 00c8 93F80E21 		ldrb	r2, [r3, #270]	@ zero_extendqisi2
 1028 00cc 8242     		cmp	r2, r0
 1029 00ce 01D0     		beq	.L47
 1030              	.L52:
 252:subsystems/gps/gps_ubx.c ****       gps_ubx.error_last = GPS_UBX_ERR_CHECKSUM;
 1031              		.loc 2 252 0
 1032 00d0 0321     		movs	r1, #3
 1033 00d2 04E0     		b	.L49
 1034              	.L47:
 253:subsystems/gps/gps_ubx.c ****       goto error;
 254:subsystems/gps/gps_ubx.c ****     }
 255:subsystems/gps/gps_ubx.c ****     gps_ubx.msg_available = TRUE;
 1035              		.loc 2 255 0
 1036 00d4 0120     		movs	r0, #1
 1037              	.LVL61:
 1038 00d6 1870     		strb	r0, [r3, #0]
 256:subsystems/gps/gps_ubx.c ****     goto restart;
 1039              		.loc 2 256 0
 1040 00d8 09E0     		b	.L48
 1041              	.LVL62:
 1042              	.L28:
 257:subsystems/gps/gps_ubx.c ****     break;
 258:subsystems/gps/gps_ubx.c ****   default:
 259:subsystems/gps/gps_ubx.c ****     gps_ubx.error_last = GPS_UBX_ERR_UNEXPECTED;
 1043              		.loc 2 259 0
 1044 00da 074B     		ldr	r3, .L53
 1045 00dc 0421     		movs	r1, #4
 1046              	.LVL63:
 1047              	.L49:
 1048              	.L42:
 1049 00de 83F81211 		strb	r1, [r3, #274]
 260:subsystems/gps/gps_ubx.c ****     goto error;
 261:subsystems/gps/gps_ubx.c ****   }
 262:subsystems/gps/gps_ubx.c ****   return;
 263:subsystems/gps/gps_ubx.c ****  error:
 264:subsystems/gps/gps_ubx.c ****   gps_ubx.error_cnt++;
 1050              		.loc 2 264 0
 1051 00e2 054B     		ldr	r3, .L53
 1052 00e4 93F81121 		ldrb	r2, [r3, #273]	@ zero_extendqisi2
 1053 00e8 501C     		adds	r0, r2, #1
 1054 00ea 83F81101 		strb	r0, [r3, #273]
 1055              	.L48:
 265:subsystems/gps/gps_ubx.c ****  restart:
 266:subsystems/gps/gps_ubx.c ****   gps_ubx.status = UNINIT;
 1056              		.loc 2 266 0
 1057 00ee 0021     		movs	r1, #0
 1058              	.L51:
 1059 00f0 014B     		ldr	r3, .L53
 1060              	.L50:
 1061 00f2 83F80911 		strb	r1, [r3, #265]
 1062              	.L26:
 1063 00f6 10BD     		pop	{r4, pc}
 1064              	.L54:
 1065              		.align	2
 1066              	.L53:
 1067 00f8 00000000 		.word	.LANCHOR0
 1068              		.cfi_endproc
 1069              	.LFE22:
 1071              		.section	.text.gps_ubx_ucenter_init,"ax",%progbits
 1072              		.align	1
 1073              		.global	gps_ubx_ucenter_init
 1074              		.thumb
 1075              		.thumb_func
 1077              	gps_ubx_ucenter_init:
 1078              	.LFB23:
  58:./modules/gps/gps_ubx_ucenter.c **** {
 1079              		.loc 1 58 0
 1080              		.cfi_startproc
 1081              		@ args = 0, pretend = 0, frame = 0
 1082              		@ frame_needed = 0, uses_anonymous_args = 0
 1083              		@ link register save eliminated.
  60:./modules/gps/gps_ubx_ucenter.c ****   gps_ubx_ucenter.status = GPS_UBX_UCENTER_STATUS_AUTOBAUD;
 1084              		.loc 1 60 0
 1085 0000 094B     		ldr	r3, .L58
 1086 0002 0122     		movs	r2, #1
 1087 0004 1A70     		strb	r2, [r3, #0]
  61:./modules/gps/gps_ubx_ucenter.c ****   gps_ubx_ucenter.reply = GPS_UBX_UCENTER_REPLY_NONE;
 1088              		.loc 1 61 0
 1089 0006 0022     		movs	r2, #0
 1090 0008 5A70     		strb	r2, [r3, #1]
  62:./modules/gps/gps_ubx_ucenter.c ****   gps_ubx_ucenter.cnt = 0;
 1091              		.loc 1 62 0
 1092 000a 9A70     		strb	r2, [r3, #2]
  64:./modules/gps/gps_ubx_ucenter.c ****   gps_ubx_ucenter.baud_init = 0;
 1093              		.loc 1 64 0
 1094 000c 9A80     		strh	r2, [r3, #4]	@ movhi
  65:./modules/gps/gps_ubx_ucenter.c ****   gps_ubx_ucenter.baud_run = 0;
 1095              		.loc 1 65 0
 1096 000e DA80     		strh	r2, [r3, #6]	@ movhi
  67:./modules/gps/gps_ubx_ucenter.c ****   gps_ubx_ucenter.sw_ver_h = 0;
 1097              		.loc 1 67 0
 1098 0010 1A72     		strb	r2, [r3, #8]
  68:./modules/gps/gps_ubx_ucenter.c ****   gps_ubx_ucenter.sw_ver_l = 0;
 1099              		.loc 1 68 0
 1100 0012 5A72     		strb	r2, [r3, #9]
  69:./modules/gps/gps_ubx_ucenter.c ****   gps_ubx_ucenter.hw_ver_h = 0;
 1101              		.loc 1 69 0
 1102 0014 5A81     		strh	r2, [r3, #10]	@ movhi
  70:./modules/gps/gps_ubx_ucenter.c ****   gps_ubx_ucenter.hw_ver_l = 0;
 1103              		.loc 1 70 0
 1104 0016 9A81     		strh	r2, [r3, #12]	@ movhi
 1105              	.LVL64:
 1106              	.L56:
 1107              	.LBB55:
  57:./modules/gps/gps_ubx_ucenter.c **** void gps_ubx_ucenter_init(void)
 1108              		.loc 1 57 0 discriminator 2
 1109 0018 9918     		adds	r1, r3, r2
  72:./modules/gps/gps_ubx_ucenter.c ****   for (int i=0; i<GPS_UBX_UCENTER_CONFIG_STEPS; i++)
 1110              		.loc 1 72 0 discriminator 2
 1111 001a 0132     		adds	r2, r2, #1
 1112              	.LVL65:
  74:./modules/gps/gps_ubx_ucenter.c ****     gps_ubx_ucenter.replies[i] = 0;
 1113              		.loc 1 74 0 discriminator 2
 1114 001c 0020     		movs	r0, #0
  72:./modules/gps/gps_ubx_ucenter.c ****   for (int i=0; i<GPS_UBX_UCENTER_CONFIG_STEPS; i++)
 1115              		.loc 1 72 0 discriminator 2
 1116 001e 112A     		cmp	r2, #17
  74:./modules/gps/gps_ubx_ucenter.c ****     gps_ubx_ucenter.replies[i] = 0;
 1117              		.loc 1 74 0 discriminator 2
 1118 0020 8873     		strb	r0, [r1, #14]
  72:./modules/gps/gps_ubx_ucenter.c ****   for (int i=0; i<GPS_UBX_UCENTER_CONFIG_STEPS; i++)
 1119              		.loc 1 72 0 discriminator 2
 1120 0022 F9D1     		bne	.L56
 1121              	.LBE55:
  76:./modules/gps/gps_ubx_ucenter.c **** }
 1122              		.loc 1 76 0
 1123 0024 7047     		bx	lr
 1124              	.L59:
 1125 0026 00BF     		.align	2
 1126              	.L58:
 1127 0028 00000000 		.word	.LANCHOR1
 1128              		.cfi_endproc
 1129              	.LFE23:
 1131              		.section	.text.gps_ubx_ucenter_periodic,"ax",%progbits
 1132              		.align	1
 1133              		.global	gps_ubx_ucenter_periodic
 1134              		.thumb
 1135              		.thumb_func
 1137              	gps_ubx_ucenter_periodic:
 1138              	.LFB24:
  84:./modules/gps/gps_ubx_ucenter.c **** {
 1139              		.loc 1 84 0
 1140              		.cfi_startproc
 1141              		@ args = 0, pretend = 0, frame = 0
 1142              		@ frame_needed = 0, uses_anonymous_args = 0
 1143 0000 38B5     		push	{r3, r4, r5, lr}
 1144              	.LCFI3:
 1145              		.cfi_def_cfa_offset 16
 1146              		.cfi_offset 3, -16
 1147              		.cfi_offset 4, -12
 1148              		.cfi_offset 5, -8
 1149              		.cfi_offset 14, -4
  85:./modules/gps/gps_ubx_ucenter.c ****   switch (gps_ubx_ucenter.status)
 1150              		.loc 1 85 0
 1151 0002 894B     		ldr	r3, .L106
 1152 0004 1A78     		ldrb	r2, [r3, #0]	@ zero_extendqisi2
 1153 0006 012A     		cmp	r2, #1
 1154 0008 03D0     		beq	.L62
 1155 000a 022A     		cmp	r2, #2
 1156 000c 40F05787 		bne	.L60
 1157 0010 C5E0     		b	.L105
 1158              	.L62:
 1159              	.LVL66:
 1160              	.LBB265:
 1161              	.LBB266:
 164:./modules/gps/gps_ubx_ucenter.c ****   switch (nr)
 1162              		.loc 1 164 0
 1163 0012 9978     		ldrb	r1, [r3, #2]	@ zero_extendqisi2
 1164 0014 8A1E     		subs	r2, r1, #2
 1165 0016 042A     		cmp	r2, #4
 1166 0018 00F24D87 		bhi	.L77
 1167 001c DFE802F0 		tbb	[pc, r2]
 1168              	.L70:
 1169 0020 03       		.byte	(.L65-.L70)/2
 1170 0021 09       		.byte	(.L66-.L70)/2
 1171 0022 16       		.byte	(.L67-.L70)/2
 1172 0023 23       		.byte	(.L68-.L70)/2
 1173 0024 AD       		.byte	(.L69-.L70)/2
 1174 0025 00       		.align	1
 1175              	.L65:
 172:./modules/gps/gps_ubx_ucenter.c ****     gps_ubx_ucenter.reply = GPS_UBX_UCENTER_REPLY_NONE;
 1176              		.loc 1 172 0
 1177 0026 0025     		movs	r5, #0
 1178 0028 5D70     		strb	r5, [r3, #1]
 173:./modules/gps/gps_ubx_ucenter.c ****     GpsUartSetBaudrate(B38400); // Try the most common first?
 1179              		.loc 1 173 0
 1180 002a 8048     		ldr	r0, .L106+4
 1181 002c 4FF41641 		mov	r1, #38400
 1182 0030 25E0     		b	.L94
 1183              	.L66:
 177:./modules/gps/gps_ubx_ucenter.c ****     if (gps_ubx_ucenter.reply == GPS_UBX_UCENTER_REPLY_ACK)
 1184              		.loc 1 177 0
 1185 0032 5978     		ldrb	r1, [r3, #1]	@ zero_extendqisi2
 1186 0034 7C4A     		ldr	r2, .L106
 1187 0036 0129     		cmp	r1, #1
 1188 0038 02D1     		bne	.L71
 179:./modules/gps/gps_ubx_ucenter.c ****       gps_ubx_ucenter.baud_init = 38400;
 1189              		.loc 1 179 0
 1190 003a 4FF41640 		mov	r0, #38400
 1191 003e A2E0     		b	.L93
 1192              	.L71:
 182:./modules/gps/gps_ubx_ucenter.c ****     gps_ubx_ucenter.reply = GPS_UBX_UCENTER_REPLY_NONE;
 1193              		.loc 1 182 0
 1194 0040 0025     		movs	r5, #0
 1195 0042 5570     		strb	r5, [r2, #1]
 183:./modules/gps/gps_ubx_ucenter.c ****     GpsUartSetBaudrate(B9600); // Maybe the factory default?
 1196              		.loc 1 183 0
 1197 0044 7948     		ldr	r0, .L106+4
 1198 0046 4FF41651 		mov	r1, #9600
 1199 004a 18E0     		b	.L94
 1200              	.L67:
 187:./modules/gps/gps_ubx_ucenter.c ****     if (gps_ubx_ucenter.reply == GPS_UBX_UCENTER_REPLY_ACK)
 1201              		.loc 1 187 0
 1202 004c 5878     		ldrb	r0, [r3, #1]	@ zero_extendqisi2
 1203 004e 764A     		ldr	r2, .L106
 1204 0050 0128     		cmp	r0, #1
 1205 0052 02D1     		bne	.L73
 189:./modules/gps/gps_ubx_ucenter.c ****       gps_ubx_ucenter.baud_init = 9600;
 1206              		.loc 1 189 0
 1207 0054 4FF41650 		mov	r0, #9600
 1208 0058 95E0     		b	.L93
 1209              	.L73:
 192:./modules/gps/gps_ubx_ucenter.c ****     gps_ubx_ucenter.reply = GPS_UBX_UCENTER_REPLY_NONE;
 1210              		.loc 1 192 0
 1211 005a 0025     		movs	r5, #0
 1212 005c 5570     		strb	r5, [r2, #1]
 193:./modules/gps/gps_ubx_ucenter.c ****     GpsUartSetBaudrate(B57600); // The high-rate default?
 1213              		.loc 1 193 0
 1214 005e 7348     		ldr	r0, .L106+4
 1215 0060 4FF46141 		mov	r1, #57600
 1216 0064 0BE0     		b	.L94
 1217              	.L68:
 197:./modules/gps/gps_ubx_ucenter.c ****     if (gps_ubx_ucenter.reply == GPS_UBX_UCENTER_REPLY_ACK)
 1218              		.loc 1 197 0
 1219 0066 5B78     		ldrb	r3, [r3, #1]	@ zero_extendqisi2
 1220 0068 6F4A     		ldr	r2, .L106
 1221 006a 012B     		cmp	r3, #1
 1222 006c 02D1     		bne	.L74
 199:./modules/gps/gps_ubx_ucenter.c ****       gps_ubx_ucenter.baud_init = 57600;
 1223              		.loc 1 199 0
 1224 006e 4FF46140 		mov	r0, #57600
 1225 0072 88E0     		b	.L93
 1226              	.L74:
 202:./modules/gps/gps_ubx_ucenter.c ****     gps_ubx_ucenter.reply = GPS_UBX_UCENTER_REPLY_NONE;
 1227              		.loc 1 202 0
 1228 0074 0025     		movs	r5, #0
 203:./modules/gps/gps_ubx_ucenter.c ****     GpsUartSetBaudrate(B4800); // Default NMEA baudrate finally?
 1229              		.loc 1 203 0
 1230 0076 6D48     		ldr	r0, .L106+4
 202:./modules/gps/gps_ubx_ucenter.c ****     gps_ubx_ucenter.reply = GPS_UBX_UCENTER_REPLY_NONE;
 1231              		.loc 1 202 0
 1232 0078 5570     		strb	r5, [r2, #1]
 203:./modules/gps/gps_ubx_ucenter.c ****     GpsUartSetBaudrate(B4800); // Default NMEA baudrate finally?
 1233              		.loc 1 203 0
 1234 007a 4FF49651 		mov	r1, #4800
 1235              	.L94:
 1236 007e FFF7FEFF 		bl	uart_periph_set_baudrate
 1237              	.LVL67:
 1238              	.LBB267:
 204:./modules/gps/gps_ubx_ucenter.c ****     UbxSend_CFG_MSG(UBX_NAV_ID, UBX_NAV_VELNED_ID, 0, 1, 0, 0);
 1239              		.loc 1 204 0
 1240 0082 6A48     		ldr	r0, .L106+4
 1241 0084 B521     		movs	r1, #181
 1242 0086 6A4C     		ldr	r4, .L106+8
 1243 0088 FFF7FEFF 		bl	uart_transmit
 1244              	.LVL68:
 1245 008c 6748     		ldr	r0, .L106+4
 1246 008e 6221     		movs	r1, #98
 1247 0090 FFF7FEFF 		bl	uart_transmit
 1248              	.LVL69:
 1249              	.LBB268:
 1250 0094 6548     		ldr	r0, .L106+4
 1251 0096 0621     		movs	r1, #6
 1252              	.LBE268:
 1253 0098 84F81051 		strb	r5, [r4, #272]
 1254 009c 84F80F51 		strb	r5, [r4, #271]
 1255              	.LVL70:
 1256              	.LBB269:
 1257 00a0 FFF7FEFF 		bl	uart_transmit
 1258              	.LVL71:
 1259 00a4 94F80F21 		ldrb	r2, [r4, #271]	@ zero_extendqisi2
 1260 00a8 94F81011 		ldrb	r1, [r4, #272]	@ zero_extendqisi2
 1261 00ac 931D     		adds	r3, r2, #6
 1262 00ae D8B2     		uxtb	r0, r3
 1263 00b0 4218     		adds	r2, r0, r1
 1264 00b2 84F80F01 		strb	r0, [r4, #271]
 1265              	.LBE269:
 1266              	.LBB270:
 1267 00b6 0121     		movs	r1, #1
 1268 00b8 5C48     		ldr	r0, .L106+4
 1269              	.LBE270:
 1270              	.LBB271:
 1271 00ba 84F81021 		strb	r2, [r4, #272]
 1272              	.LVL72:
 1273              	.LBE271:
 1274              	.LBB272:
 1275 00be FFF7FEFF 		bl	uart_transmit
 1276              	.LVL73:
 1277 00c2 94F80F31 		ldrb	r3, [r4, #271]	@ zero_extendqisi2
 1278 00c6 94F81021 		ldrb	r2, [r4, #272]	@ zero_extendqisi2
 1279 00ca 581C     		adds	r0, r3, #1
 1280 00cc C1B2     		uxtb	r1, r0
 1281 00ce 8B18     		adds	r3, r1, r2
 1282 00d0 84F80F11 		strb	r1, [r4, #271]
 1283              	.LBE272:
 1284              	.LBB273:
 1285              	.LBB274:
 1286 00d4 5548     		ldr	r0, .L106+4
 1287 00d6 0621     		movs	r1, #6
 1288              	.LBE274:
 1289              	.LBE273:
 1290              	.LBB281:
 1291 00d8 84F81031 		strb	r3, [r4, #272]
 1292              	.LVL74:
 1293              	.LBE281:
 1294              	.LBB282:
 1295              	.LBB275:
 1296 00dc FFF7FEFF 		bl	uart_transmit
 1297              	.LVL75:
 1298 00e0 94F80F01 		ldrb	r0, [r4, #271]	@ zero_extendqisi2
 1299 00e4 94F81021 		ldrb	r2, [r4, #272]	@ zero_extendqisi2
 1300 00e8 811D     		adds	r1, r0, #6
 1301 00ea CBB2     		uxtb	r3, r1
 1302 00ec 9818     		adds	r0, r3, r2
 1303 00ee 84F81001 		strb	r0, [r4, #272]
 1304              	.LVL76:
 1305              	.LBE275:
 1306              	.LBB276:
 1307 00f2 2946     		mov	r1, r5
 1308 00f4 4D48     		ldr	r0, .L106+4
 1309              	.LBE276:
 1310              	.LBB277:
 1311 00f6 84F80F31 		strb	r3, [r4, #271]
 1312              	.LBE277:
 1313              	.LBB278:
 1314 00fa FFF7FEFF 		bl	uart_transmit
 1315              	.LVL77:
 1316 00fe 94F81011 		ldrb	r1, [r4, #272]	@ zero_extendqisi2
 1317 0102 94F80F31 		ldrb	r3, [r4, #271]	@ zero_extendqisi2
 1318              	.LBE278:
 1319              	.LBE282:
 1320              	.LBB283:
 1321 0106 4948     		ldr	r0, .L106+4
 1322              	.LBE283:
 1323              	.LBB284:
 1324              	.LBB279:
 1325 0108 CA18     		adds	r2, r1, r3
 1326              	.LBE279:
 1327              	.LBE284:
 1328              	.LBB285:
 1329 010a 0121     		movs	r1, #1
 1330              	.LBE285:
 1331              	.LBB286:
 1332              	.LBB280:
 1333 010c 84F81021 		strb	r2, [r4, #272]
 1334              	.LVL78:
 1335              	.LBE280:
 1336              	.LBE286:
 1337              	.LBB287:
 1338 0110 FFF7FEFF 		bl	uart_transmit
 1339              	.LVL79:
 1340 0114 94F80F01 		ldrb	r0, [r4, #271]	@ zero_extendqisi2
 1341 0118 94F81021 		ldrb	r2, [r4, #272]	@ zero_extendqisi2
 1342 011c 411C     		adds	r1, r0, #1
 1343 011e CBB2     		uxtb	r3, r1
 1344 0120 9818     		adds	r0, r3, r2
 1345 0122 84F81001 		strb	r0, [r4, #272]
 1346              	.LVL80:
 1347              	.LBE287:
 1348              	.LBB288:
 1349 0126 1221     		movs	r1, #18
 1350 0128 4048     		ldr	r0, .L106+4
 1351              	.LBE288:
 1352              	.LBB289:
 1353 012a 84F80F31 		strb	r3, [r4, #271]
 1354              	.LBE289:
 1355              	.LBB290:
 1356 012e FFF7FEFF 		bl	uart_transmit
 1357              	.LVL81:
 1358 0132 94F80F11 		ldrb	r1, [r4, #271]	@ zero_extendqisi2
 1359 0136 94F81021 		ldrb	r2, [r4, #272]	@ zero_extendqisi2
 1360 013a 1231     		adds	r1, r1, #18
 1361 013c CBB2     		uxtb	r3, r1
 1362 013e 9818     		adds	r0, r3, r2
 1363 0140 84F81001 		strb	r0, [r4, #272]
 1364              	.LVL82:
 1365              	.LBE290:
 1366              	.LBB291:
 1367 0144 2946     		mov	r1, r5
 1368 0146 3948     		ldr	r0, .L106+4
 1369              	.LBE291:
 1370              	.LBB292:
 1371 0148 84F80F31 		strb	r3, [r4, #271]
 1372              	.LBE292:
 1373              	.LBB293:
 1374 014c FFF7FEFF 		bl	uart_transmit
 1375              	.LVL83:
 1376 0150 94F81011 		ldrb	r1, [r4, #272]	@ zero_extendqisi2
 1377 0154 94F80F31 		ldrb	r3, [r4, #271]	@ zero_extendqisi2
 1378              	.LBE293:
 1379              	.LBB294:
 1380 0158 3448     		ldr	r0, .L106+4
 1381              	.LBE294:
 1382              	.LBB295:
 1383 015a CA18     		adds	r2, r1, r3
 1384              	.LBE295:
 1385              	.LBB296:
 1386 015c 0121     		movs	r1, #1
 1387              	.LBE296:
 1388              	.LBB297:
 1389 015e 84F81021 		strb	r2, [r4, #272]
 1390              	.LVL84:
 1391              	.LBE297:
 1392              	.LBB298:
 1393 0162 FFF7FEFF 		bl	uart_transmit
 1394              	.LVL85:
 1395 0166 94F80F01 		ldrb	r0, [r4, #271]	@ zero_extendqisi2
 1396 016a 0130     		adds	r0, r0, #1
 1397              	.LVL86:
 1398              	.L104:
 1399 016c C3B2     		uxtb	r3, r0
 1400 016e 84F80F31 		strb	r3, [r4, #271]
 1401 0172 94F81011 		ldrb	r1, [r4, #272]	@ zero_extendqisi2
 1402 0176 00F0B9BD 		b	.L96
 1403              	.LVL87:
 1404              	.L69:
 1405              	.LBE298:
 1406              	.LBE267:
 207:./modules/gps/gps_ubx_ucenter.c ****     if (gps_ubx_ucenter.reply == GPS_UBX_UCENTER_REPLY_ACK)
 1407              		.loc 1 207 0
 1408 017a 5B78     		ldrb	r3, [r3, #1]	@ zero_extendqisi2
 1409 017c 2A4A     		ldr	r2, .L106
 1410 017e 012B     		cmp	r3, #1
 1411 0180 04D1     		bne	.L75
 209:./modules/gps/gps_ubx_ucenter.c ****       gps_ubx_ucenter.baud_init = 4800;
 1412              		.loc 1 209 0
 1413 0182 4FF49650 		mov	r0, #4800
 1414              	.L93:
 1415 0186 9080     		strh	r0, [r2, #4]	@ movhi
 1416 0188 00F08DBE 		b	.L72
 1417              	.L75:
 215:./modules/gps/gps_ubx_ucenter.c ****     gps_ubx_ucenter.baud_init = 0;
 1418              		.loc 1 215 0
 1419 018c 0021     		movs	r1, #0
 1420 018e 9180     		strh	r1, [r2, #4]	@ movhi
 216:./modules/gps/gps_ubx_ucenter.c ****     GpsUartSetBaudrate(B9600);
 1421              		.loc 1 216 0
 1422 0190 2648     		ldr	r0, .L106+4
 1423 0192 4FF41651 		mov	r1, #9600
 1424 0196 FFF7FEFF 		bl	uart_periph_set_baudrate
 1425              	.LVL88:
 1426 019a 00F084BE 		b	.L72
 1427              	.L105:
 1428              	.LBE266:
 1429              	.LBE265:
 104:./modules/gps/gps_ubx_ucenter.c ****       if (gps_ubx_ucenter_configure(gps_ubx_ucenter.cnt) == FALSE)
 1430              		.loc 1 104 0
 1431 019e 9A78     		ldrb	r2, [r3, #2]	@ zero_extendqisi2
 1432              	.LVL89:
 1433              	.LBB299:
 1434              	.LBB300:
 326:./modules/gps/gps_ubx_ucenter.c **** 
 327:./modules/gps/gps_ubx_ucenter.c **** 
 328:./modules/gps/gps_ubx_ucenter.c **** // Text Telemetry for Debugging
 329:./modules/gps/gps_ubx_ucenter.c **** #ifndef DOWNLINK_DEVICE
 330:./modules/gps/gps_ubx_ucenter.c **** #define DOWNLINK_DEVICE DOWNLINK_AP_DEVICE
 331:./modules/gps/gps_ubx_ucenter.c **** #endif
 332:./modules/gps/gps_ubx_ucenter.c **** #undef GOT_PAYLOAD
 333:./modules/gps/gps_ubx_ucenter.c **** #include "subsystems/datalink/downlink.h"
 334:./modules/gps/gps_ubx_ucenter.c **** 
 335:./modules/gps/gps_ubx_ucenter.c **** static bool_t gps_ubx_ucenter_configure(uint8_t nr)
 336:./modules/gps/gps_ubx_ucenter.c **** {
 337:./modules/gps/gps_ubx_ucenter.c ****   // Store the reply of the last configuration step and reset
 338:./modules/gps/gps_ubx_ucenter.c ****   if (nr < GPS_UBX_UCENTER_CONFIG_STEPS)
 1435              		.loc 1 338 0
 1436 01a0 102A     		cmp	r2, #16
 1437 01a2 02D8     		bhi	.L76
 339:./modules/gps/gps_ubx_ucenter.c ****     gps_ubx_ucenter.replies[nr] = gps_ubx_ucenter.reply;
 1438              		.loc 1 339 0
 1439 01a4 5878     		ldrb	r0, [r3, #1]	@ zero_extendqisi2
 1440 01a6 9918     		adds	r1, r3, r2
 1441 01a8 8873     		strb	r0, [r1, #14]
 1442              	.L76:
 340:./modules/gps/gps_ubx_ucenter.c **** 
 341:./modules/gps/gps_ubx_ucenter.c ****   gps_ubx_ucenter.reply = GPS_UBX_UCENTER_REPLY_NONE;
 1443              		.loc 1 341 0
 1444 01aa 0021     		movs	r1, #0
 1445 01ac 5970     		strb	r1, [r3, #1]
 1446 01ae 1E4C     		ldr	r4, .L106
 1447 01b0 0B46     		mov	r3, r1
 342:./modules/gps/gps_ubx_ucenter.c **** 
 343:./modules/gps/gps_ubx_ucenter.c ****   switch (nr) {
 1448              		.loc 1 343 0
 1449 01b2 102A     		cmp	r2, #16
 1450 01b4 00F27F86 		bhi	.L77
 1451 01b8 DFE812F0 		tbh	[pc, r2, lsl #1]
 1452              	.L91:
 1453 01bc 1100     		.2byte	(.L78-.L91)/2
 1454 01be 7D06     		.2byte	(.L77-.L91)/2
 1455 01c0 7D06     		.2byte	(.L77-.L91)/2
 1456 01c2 7D06     		.2byte	(.L77-.L91)/2
 1457 01c4 7D06     		.2byte	(.L77-.L91)/2
 1458 01c6 3C00     		.2byte	(.L79-.L91)/2
 1459 01c8 4601     		.2byte	(.L80-.L91)/2
 1460 01ca 9204     		.2byte	(.L81-.L91)/2
 1461 01cc 9404     		.2byte	(.L82-.L91)/2
 1462 01ce 9704     		.2byte	(.L83-.L91)/2
 1463 01d0 9904     		.2byte	(.L84-.L91)/2
 1464 01d2 9C04     		.2byte	(.L85-.L91)/2
 1465 01d4 A004     		.2byte	(.L86-.L91)/2
 1466 01d6 A504     		.2byte	(.L87-.L91)/2
 1467 01d8 2105     		.2byte	(.L88-.L91)/2
 1468 01da BE05     		.2byte	(.L89-.L91)/2
 1469 01dc 7A06     		.2byte	(.L90-.L91)/2
 1470              	.L78:
 344:./modules/gps/gps_ubx_ucenter.c ****   case 0:
 345:./modules/gps/gps_ubx_ucenter.c ****     UbxSend_MON_GET_VER();
 1471              		.loc 1 345 0
 1472 01de 1348     		ldr	r0, .L106+4
 1473 01e0 B521     		movs	r1, #181
 1474 01e2 134C     		ldr	r4, .L106+8
 1475 01e4 FFF7FEFF 		bl	uart_transmit
 1476              	.LVL90:
 1477 01e8 1048     		ldr	r0, .L106+4
 1478 01ea 6221     		movs	r1, #98
 1479 01ec FFF7FEFF 		bl	uart_transmit
 1480              	.LVL91:
 1481 01f0 0025     		movs	r5, #0
 1482              	.LBB301:
 1483 01f2 0E48     		ldr	r0, .L106+4
 1484 01f4 0A21     		movs	r1, #10
 1485              	.LBE301:
 1486 01f6 84F81051 		strb	r5, [r4, #272]
 1487 01fa 84F80F51 		strb	r5, [r4, #271]
 1488              	.LVL92:
 1489              	.LBB302:
 1490 01fe FFF7FEFF 		bl	uart_transmit
 1491              	.LVL93:
 1492 0202 94F80F21 		ldrb	r2, [r4, #271]	@ zero_extendqisi2
 1493 0206 94F81011 		ldrb	r1, [r4, #272]	@ zero_extendqisi2
 1494 020a 0A32     		adds	r2, r2, #10
 1495 020c D0B2     		uxtb	r0, r2
 1496 020e 4318     		adds	r3, r0, r1
 1497 0210 84F80F01 		strb	r0, [r4, #271]
 1498              	.LBE302:
 1499              	.LBB303:
 1500 0214 0421     		movs	r1, #4
 1501 0216 0548     		ldr	r0, .L106+4
 1502              	.LBE303:
 1503              	.LBB304:
 1504 0218 84F81031 		strb	r3, [r4, #272]
 1505              	.LVL94:
 1506              	.LBE304:
 1507              	.LBB305:
 1508 021c FFF7FEFF 		bl	uart_transmit
 1509              	.LVL95:
 1510 0220 94F80F21 		ldrb	r2, [r4, #271]	@ zero_extendqisi2
 1511 0224 101D     		adds	r0, r2, #4
 1512 0226 A1E7     		b	.L104
 1513              	.L107:
 1514              		.align	2
 1515              	.L106:
 1516 0228 00000000 		.word	.LANCHOR1
 1517 022c 00000000 		.word	uart3
 1518 0230 00000000 		.word	.LANCHOR0
 1519              	.LVL96:
 1520              	.L79:
 1521              	.LBE305:
 346:./modules/gps/gps_ubx_ucenter.c ****     break;
 347:./modules/gps/gps_ubx_ucenter.c ****   case 1:
 348:./modules/gps/gps_ubx_ucenter.c ****   case 2:
 349:./modules/gps/gps_ubx_ucenter.c ****   case 3:
 350:./modules/gps/gps_ubx_ucenter.c ****   case 4:
 351:./modules/gps/gps_ubx_ucenter.c ****     // UBX_G5010 takes 0.7 seconds to answer a firmware request
 352:./modules/gps/gps_ubx_ucenter.c ****     // Version info is important for porper configuration as different firmwares have different set
 353:./modules/gps/gps_ubx_ucenter.c ****     break;
 354:./modules/gps/gps_ubx_ucenter.c ****   case 5:
 355:./modules/gps/gps_ubx_ucenter.c ****     // Send some debugging info: detected baudrate, software version etc...
 356:./modules/gps/gps_ubx_ucenter.c ****     gps_ubx_ucenter.replies[0] = (gps_ubx_ucenter.baud_init/1000);
 1522              		.loc 1 356 0
 1523 0234 A588     		ldrh	r5, [r4, #4]
 1524 0236 4FF47A70 		mov	r0, #1000
 357:./modules/gps/gps_ubx_ucenter.c ****     gps_ubx_ucenter.replies[1] = (gps_ubx_ucenter.baud_init - 1000 * gps_ubx_ucenter.replies[0]) / 
 1525              		.loc 1 357 0
 1526 023a 8049     		ldr	r1, .L108
 356:./modules/gps/gps_ubx_ucenter.c ****     gps_ubx_ucenter.replies[0] = (gps_ubx_ucenter.baud_init/1000);
 1527              		.loc 1 356 0
 1528 023c B5FBF0F3 		udiv	r3, r5, r0
 1529              		.loc 1 357 0
 1530 0240 01FB0352 		mla	r2, r1, r3, r5
 358:./modules/gps/gps_ubx_ucenter.c ****     gps_ubx_ucenter.replies[2] = gps_ubx_ucenter.sw_ver_h;
 359:./modules/gps/gps_ubx_ucenter.c ****     gps_ubx_ucenter.replies[3] = gps_ubx_ucenter.sw_ver_l;
 1531              		.loc 1 359 0
 1532 0244 617A     		ldrb	r1, [r4, #9]	@ zero_extendqisi2
 357:./modules/gps/gps_ubx_ucenter.c ****     gps_ubx_ucenter.replies[1] = (gps_ubx_ucenter.baud_init - 1000 * gps_ubx_ucenter.replies[0]) / 
 1533              		.loc 1 357 0
 1534 0246 6425     		movs	r5, #100
 1535 0248 92FBF5F0 		sdiv	r0, r2, r5
 356:./modules/gps/gps_ubx_ucenter.c ****     gps_ubx_ucenter.replies[0] = (gps_ubx_ucenter.baud_init/1000);
 1536              		.loc 1 356 0
 1537 024c A373     		strb	r3, [r4, #14]
 360:./modules/gps/gps_ubx_ucenter.c ****     gps_ubx_ucenter.replies[4] = gps_ubx_ucenter.hw_ver_h;
 1538              		.loc 1 360 0
 1539 024e 6289     		ldrh	r2, [r4, #10]
 358:./modules/gps/gps_ubx_ucenter.c ****     gps_ubx_ucenter.replies[2] = gps_ubx_ucenter.sw_ver_h;
 1540              		.loc 1 358 0
 1541 0250 237A     		ldrb	r3, [r4, #8]	@ zero_extendqisi2
 361:./modules/gps/gps_ubx_ucenter.c ****     gps_ubx_ucenter.replies[5] = gps_ubx_ucenter.hw_ver_l;
 1542              		.loc 1 361 0
 1543 0252 A589     		ldrh	r5, [r4, #12]
 357:./modules/gps/gps_ubx_ucenter.c ****     gps_ubx_ucenter.replies[1] = (gps_ubx_ucenter.baud_init - 1000 * gps_ubx_ucenter.replies[0]) / 
 1544              		.loc 1 357 0
 1545 0254 E073     		strb	r0, [r4, #15]
 359:./modules/gps/gps_ubx_ucenter.c ****     gps_ubx_ucenter.replies[3] = gps_ubx_ucenter.sw_ver_l;
 1546              		.loc 1 359 0
 1547 0256 6174     		strb	r1, [r4, #17]
 1548              	.LBB306:
 1549              	.LBB307:
 296:./modules/gps/gps_ubx_ucenter.c ****     UbxSend_CFG_PRT(GPS_PORT_ID, 0x0, 0x0, 0x000008D0, 38400, UBX_PROTO_MASK, UBX_PROTO_MASK, 0x0, 
 1550              		.loc 1 296 0
 1551 0258 7948     		ldr	r0, .L108+4
 1552 025a B521     		movs	r1, #181
 1553              	.LBE307:
 1554              	.LBE306:
 358:./modules/gps/gps_ubx_ucenter.c ****     gps_ubx_ucenter.replies[2] = gps_ubx_ucenter.sw_ver_h;
 1555              		.loc 1 358 0
 1556 025c 2374     		strb	r3, [r4, #16]
 360:./modules/gps/gps_ubx_ucenter.c ****     gps_ubx_ucenter.replies[4] = gps_ubx_ucenter.hw_ver_h;
 1557              		.loc 1 360 0
 1558 025e A274     		strb	r2, [r4, #18]
 1559              		.loc 1 361 0
 1560 0260 E574     		strb	r5, [r4, #19]
 1561              	.LBB366:
 1562              	.LBB365:
 296:./modules/gps/gps_ubx_ucenter.c ****     UbxSend_CFG_PRT(GPS_PORT_ID, 0x0, 0x0, 0x000008D0, 38400, UBX_PROTO_MASK, UBX_PROTO_MASK, 0x0, 
 1563              		.loc 1 296 0
 1564 0262 784C     		ldr	r4, .L108+8
 1565 0264 FFF7FEFF 		bl	uart_transmit
 1566              	.LVL97:
 1567 0268 6221     		movs	r1, #98
 1568 026a 7548     		ldr	r0, .L108+4
 1569 026c 0025     		movs	r5, #0
 1570 026e FFF7FEFF 		bl	uart_transmit
 1571              	.LVL98:
 1572              	.LBB308:
 1573 0272 0621     		movs	r1, #6
 1574 0274 7248     		ldr	r0, .L108+4
 1575              	.LBE308:
 1576 0276 84F81051 		strb	r5, [r4, #272]
 1577 027a 84F80F51 		strb	r5, [r4, #271]
 1578              	.LVL99:
 1579              	.LBB309:
 1580 027e FFF7FEFF 		bl	uart_transmit
 1581              	.LVL100:
 1582 0282 94F80F01 		ldrb	r0, [r4, #271]	@ zero_extendqisi2
 1583 0286 94F81021 		ldrb	r2, [r4, #272]	@ zero_extendqisi2
 1584 028a 831D     		adds	r3, r0, #6
 1585 028c D9B2     		uxtb	r1, r3
 1586 028e 8818     		adds	r0, r1, r2
 1587 0290 84F80F11 		strb	r1, [r4, #271]
 1588 0294 84F81001 		strb	r0, [r4, #272]
 1589              	.LVL101:
 1590              	.LBE309:
 1591              	.LBB310:
 1592 0298 2946     		mov	r1, r5
 1593 029a 6948     		ldr	r0, .L108+4
 1594 029c FFF7FEFF 		bl	uart_transmit
 1595              	.LVL102:
 1596 02a0 94F81011 		ldrb	r1, [r4, #272]	@ zero_extendqisi2
 1597 02a4 94F80F31 		ldrb	r3, [r4, #271]	@ zero_extendqisi2
 1598              	.LBE310:
 1599              	.LBB311:
 1600              	.LBB312:
 1601 02a8 6548     		ldr	r0, .L108+4
 1602              	.LBE312:
 1603              	.LBE311:
 1604              	.LBB319:
 1605 02aa CA18     		adds	r2, r1, r3
 1606              	.LBE319:
 1607              	.LBB320:
 1608              	.LBB313:
 1609 02ac 1421     		movs	r1, #20
 1610              	.LBE313:
 1611              	.LBE320:
 1612              	.LBB321:
 1613 02ae 84F81021 		strb	r2, [r4, #272]
 1614              	.LVL103:
 1615              	.LBE321:
 1616              	.LBB322:
 1617              	.LBB314:
 1618 02b2 FFF7FEFF 		bl	uart_transmit
 1619              	.LVL104:
 1620 02b6 94F80F01 		ldrb	r0, [r4, #271]	@ zero_extendqisi2
 1621 02ba 94F81031 		ldrb	r3, [r4, #272]	@ zero_extendqisi2
 1622 02be 1430     		adds	r0, r0, #20
 1623 02c0 C1B2     		uxtb	r1, r0
 1624 02c2 CA18     		adds	r2, r1, r3
 1625 02c4 84F80F11 		strb	r1, [r4, #271]
 1626              	.LBE314:
 1627              	.LBB315:
 1628 02c8 5D48     		ldr	r0, .L108+4
 1629 02ca 2946     		mov	r1, r5
 1630              	.LBE315:
 1631              	.LBB316:
 1632 02cc 84F81021 		strb	r2, [r4, #272]
 1633              	.LVL105:
 1634              	.LBE316:
 1635              	.LBB317:
 1636 02d0 FFF7FEFF 		bl	uart_transmit
 1637              	.LVL106:
 1638 02d4 94F81001 		ldrb	r0, [r4, #272]	@ zero_extendqisi2
 1639 02d8 94F80F11 		ldrb	r1, [r4, #271]	@ zero_extendqisi2
 1640 02dc 4318     		adds	r3, r0, r1
 1641              	.LBE317:
 1642              	.LBE322:
 1643              	.LBB323:
 1644 02de 0121     		movs	r1, #1
 1645 02e0 5748     		ldr	r0, .L108+4
 1646              	.LBE323:
 1647              	.LBB324:
 1648              	.LBB318:
 1649 02e2 84F81031 		strb	r3, [r4, #272]
 1650              	.LVL107:
 1651              	.LBE318:
 1652              	.LBE324:
 1653              	.LBB325:
 1654 02e6 FFF7FEFF 		bl	uart_transmit
 1655              	.LVL108:
 1656 02ea 94F80F21 		ldrb	r2, [r4, #271]	@ zero_extendqisi2
 1657 02ee 94F81031 		ldrb	r3, [r4, #272]	@ zero_extendqisi2
 1658 02f2 501C     		adds	r0, r2, #1
 1659 02f4 C1B2     		uxtb	r1, r0
 1660 02f6 CA18     		adds	r2, r1, r3
 1661 02f8 84F80F11 		strb	r1, [r4, #271]
 1662              	.LBE325:
 1663              	.LBB326:
 1664 02fc 5048     		ldr	r0, .L108+4
 1665 02fe 2946     		mov	r1, r5
 1666              	.LBE326:
 1667              	.LBB327:
 1668 0300 84F81021 		strb	r2, [r4, #272]
 1669              	.LVL109:
 1670              	.LBE327:
 1671              	.LBB328:
 1672 0304 FFF7FEFF 		bl	uart_transmit
 1673              	.LVL110:
 1674 0308 94F81001 		ldrb	r0, [r4, #272]	@ zero_extendqisi2
 1675 030c 94F80F11 		ldrb	r1, [r4, #271]	@ zero_extendqisi2
 1676 0310 4318     		adds	r3, r0, r1
 1677              	.LBE328:
 1678              	.LBB329:
 1679 0312 4B48     		ldr	r0, .L108+4
 1680 0314 2946     		mov	r1, r5
 1681              	.LBE329:
 1682              	.LBB330:
 1683 0316 84F81031 		strb	r3, [r4, #272]
 1684              	.LVL111:
 1685              	.LBE330:
 1686              	.LBB331:
 1687 031a FFF7FEFF 		bl	uart_transmit
 1688              	.LVL112:
 1689 031e 94F81021 		ldrb	r2, [r4, #272]	@ zero_extendqisi2
 1690 0322 94F80F01 		ldrb	r0, [r4, #271]	@ zero_extendqisi2
 1691 0326 1118     		adds	r1, r2, r0
 1692 0328 84F81011 		strb	r1, [r4, #272]
 1693              	.LVL113:
 1694              	.LBE331:
 1695              	.LBB332:
 1696 032c 4448     		ldr	r0, .L108+4
 1697 032e 2946     		mov	r1, r5
 1698 0330 FFF7FEFF 		bl	uart_transmit
 1699              	.LVL114:
 1700 0334 94F81021 		ldrb	r2, [r4, #272]	@ zero_extendqisi2
 1701 0338 94F80F31 		ldrb	r3, [r4, #271]	@ zero_extendqisi2
 1702              	.LBE332:
 1703              	.LBB333:
 1704 033c D021     		movs	r1, #208
 1705              	.LBE333:
 1706              	.LBB334:
 1707 033e D018     		adds	r0, r2, r3
 1708 0340 84F81001 		strb	r0, [r4, #272]
 1709              	.LVL115:
 1710              	.LBE334:
 1711              	.LBB335:
 1712 0344 3E48     		ldr	r0, .L108+4
 1713 0346 FFF7FEFF 		bl	uart_transmit
 1714              	.LVL116:
 1715 034a 94F80F11 		ldrb	r1, [r4, #271]	@ zero_extendqisi2
 1716 034e 94F81021 		ldrb	r2, [r4, #272]	@ zero_extendqisi2
 1717 0352 3039     		subs	r1, r1, #48
 1718 0354 CBB2     		uxtb	r3, r1
 1719 0356 9818     		adds	r0, r3, r2
 1720              	.LBE335:
 1721              	.LBB336:
 1722 0358 0821     		movs	r1, #8
 1723              	.LBE336:
 1724              	.LBB337:
 1725 035a 84F81001 		strb	r0, [r4, #272]
 1726              	.LVL117:
 1727              	.LBE337:
 1728              	.LBB338:
 1729 035e 3848     		ldr	r0, .L108+4
 1730              	.LBE338:
 1731              	.LBB339:
 1732 0360 84F80F31 		strb	r3, [r4, #271]
 1733              	.LBE339:
 1734              	.LBB340:
 1735 0364 FFF7FEFF 		bl	uart_transmit
 1736              	.LVL118:
 1737 0368 94F80F11 		ldrb	r1, [r4, #271]	@ zero_extendqisi2
 1738 036c 94F81021 		ldrb	r2, [r4, #272]	@ zero_extendqisi2
 1739 0370 0831     		adds	r1, r1, #8
 1740 0372 CBB2     		uxtb	r3, r1
 1741 0374 9818     		adds	r0, r3, r2
 1742 0376 84F81001 		strb	r0, [r4, #272]
 1743              	.LVL119:
 1744              	.LBE340:
 1745              	.LBB341:
 1746 037a 2946     		mov	r1, r5
 1747 037c 3048     		ldr	r0, .L108+4
 1748              	.LBE341:
 1749              	.LBB342:
 1750 037e 84F80F31 		strb	r3, [r4, #271]
 1751              	.LBE342:
 1752              	.LBB343:
 1753 0382 FFF7FEFF 		bl	uart_transmit
 1754              	.LVL120:
 1755 0386 94F81011 		ldrb	r1, [r4, #272]	@ zero_extendqisi2
 1756 038a 94F80F31 		ldrb	r3, [r4, #271]	@ zero_extendqisi2
 1757              	.LBE343:
 1758              	.LBB344:
 1759 038e 2C48     		ldr	r0, .L108+4
 1760              	.LBE344:
 1761              	.LBB345:
 1762 0390 CA18     		adds	r2, r1, r3
 1763              	.LBE345:
 1764              	.LBB346:
 1765 0392 2946     		mov	r1, r5
 1766              	.LBE346:
 1767              	.LBB347:
 1768 0394 84F81021 		strb	r2, [r4, #272]
 1769              	.LVL121:
 1770              	.LBE347:
 1771              	.LBB348:
 1772 0398 FFF7FEFF 		bl	uart_transmit
 1773              	.LVL122:
 1774 039c 94F81001 		ldrb	r0, [r4, #272]	@ zero_extendqisi2
 1775 03a0 94F80F11 		ldrb	r1, [r4, #271]	@ zero_extendqisi2
 1776 03a4 4318     		adds	r3, r0, r1
 1777              	.LBE348:
 1778              	.LBB349:
 1779 03a6 2648     		ldr	r0, .L108+4
 1780 03a8 2946     		mov	r1, r5
 1781              	.LBE349:
 1782              	.LBB350:
 1783 03aa 84F81031 		strb	r3, [r4, #272]
 1784              	.LVL123:
 1785              	.LBE350:
 1786              	.LBB351:
 1787 03ae FFF7FEFF 		bl	uart_transmit
 1788              	.LVL124:
 1789 03b2 94F81021 		ldrb	r2, [r4, #272]	@ zero_extendqisi2
 1790 03b6 94F80F01 		ldrb	r0, [r4, #271]	@ zero_extendqisi2
 1791 03ba 1118     		adds	r1, r2, r0
 1792 03bc 84F81011 		strb	r1, [r4, #272]
 1793              	.LVL125:
 1794              	.LBE351:
 1795              	.LBB352:
 1796 03c0 1F48     		ldr	r0, .L108+4
 1797 03c2 9621     		movs	r1, #150
 1798 03c4 FFF7FEFF 		bl	uart_transmit
 1799              	.LVL126:
 1800 03c8 94F80F31 		ldrb	r3, [r4, #271]	@ zero_extendqisi2
 1801 03cc 94F81021 		ldrb	r2, [r4, #272]	@ zero_extendqisi2
 1802 03d0 6A3B     		subs	r3, r3, #106
 1803 03d2 D8B2     		uxtb	r0, r3
 1804 03d4 8118     		adds	r1, r0, r2
 1805 03d6 84F80F01 		strb	r0, [r4, #271]
 1806 03da 84F81011 		strb	r1, [r4, #272]
 1807              	.LVL127:
 1808              	.LBE352:
 1809              	.LBB353:
 1810 03de 1848     		ldr	r0, .L108+4
 1811 03e0 2946     		mov	r1, r5
 1812 03e2 FFF7FEFF 		bl	uart_transmit
 1813              	.LVL128:
 1814 03e6 94F81001 		ldrb	r0, [r4, #272]	@ zero_extendqisi2
 1815 03ea 94F80F31 		ldrb	r3, [r4, #271]	@ zero_extendqisi2
 1816              	.LBE353:
 1817              	.LBB354:
 1818 03ee 2946     		mov	r1, r5
 1819              	.LBE354:
 1820              	.LBB355:
 1821 03f0 C218     		adds	r2, r0, r3
 1822              	.LBE355:
 1823              	.LBB356:
 1824 03f2 1348     		ldr	r0, .L108+4
 1825              	.LBE356:
 1826              	.LBB357:
 1827 03f4 84F81021 		strb	r2, [r4, #272]
 1828              	.LVL129:
 1829              	.LBE357:
 1830              	.LBB358:
 1831 03f8 FFF7FEFF 		bl	uart_transmit
 1832              	.LVL130:
 1833 03fc 94F81011 		ldrb	r1, [r4, #272]	@ zero_extendqisi2
 1834 0400 94F80F01 		ldrb	r0, [r4, #271]	@ zero_extendqisi2
 1835 0404 0B18     		adds	r3, r1, r0
 1836              	.LBE358:
 1837              	.LBB359:
 1838 0406 0E48     		ldr	r0, .L108+4
 1839 0408 0121     		movs	r1, #1
 1840              	.LBE359:
 1841              	.LBB360:
 1842 040a 84F81031 		strb	r3, [r4, #272]
 1843              	.LVL131:
 1844              	.LBE360:
 1845              	.LBB361:
 1846 040e FFF7FEFF 		bl	uart_transmit
 1847              	.LVL132:
 1848 0412 94F80F21 		ldrb	r2, [r4, #271]	@ zero_extendqisi2
 1849 0416 94F81031 		ldrb	r3, [r4, #272]	@ zero_extendqisi2
 1850 041a 511C     		adds	r1, r2, #1
 1851 041c C8B2     		uxtb	r0, r1
 1852 041e C218     		adds	r2, r0, r3
 1853 0420 84F80F01 		strb	r0, [r4, #271]
 1854              	.LBE361:
 1855              	.LBB362:
 1856 0424 2946     		mov	r1, r5
 1857 0426 0648     		ldr	r0, .L108+4
 1858              	.LBE362:
 1859              	.LBB363:
 1860 0428 84F81021 		strb	r2, [r4, #272]
 1861              	.LVL133:
 1862              	.LBE363:
 1863              	.LBB364:
 1864 042c FFF7FEFF 		bl	uart_transmit
 1865              	.LVL134:
 1866 0430 94F81031 		ldrb	r3, [r4, #272]	@ zero_extendqisi2
 1867 0434 94F80F11 		ldrb	r1, [r4, #271]	@ zero_extendqisi2
 1868 0438 C6E3     		b	.L102
 1869              	.L109:
 1870 043a 00BF     		.align	2
 1871              	.L108:
 1872 043c 18FCFFFF 		.word	-1000
 1873 0440 00000000 		.word	uart3
 1874 0444 00000000 		.word	.LANCHOR0
 1875              	.LVL135:
 1876              	.L80:
 1877              	.LBE364:
 1878              	.LBE365:
 1879              	.LBE366:
 362:./modules/gps/gps_ubx_ucenter.c **** #if DEBUG_GPS_UBX_UCENTER
 363:./modules/gps/gps_ubx_ucenter.c ****     DOWNLINK_SEND_DEBUG(DefaultChannel, DefaultDevice,6,gps_ubx_ucenter.replies);
 364:./modules/gps/gps_ubx_ucenter.c **** #endif
 365:./modules/gps/gps_ubx_ucenter.c **** 
 366:./modules/gps/gps_ubx_ucenter.c ****     //////////////////////////////////
 367:./modules/gps/gps_ubx_ucenter.c ****     // Actual configuration start
 368:./modules/gps/gps_ubx_ucenter.c **** 
 369:./modules/gps/gps_ubx_ucenter.c ****     // Use old baudrate to issue a baudrate change command
 370:./modules/gps/gps_ubx_ucenter.c ****     gps_ubx_ucenter_config_port();
 371:./modules/gps/gps_ubx_ucenter.c ****     break;
 372:./modules/gps/gps_ubx_ucenter.c ****   case 6:
 373:./modules/gps/gps_ubx_ucenter.c ****     // Now the GPS baudrate should have changed
 374:./modules/gps/gps_ubx_ucenter.c ****     GpsUartSetBaudrate(B38400);
 1880              		.loc 1 374 0
 1881 0448 D248     		ldr	r0, .L110
 1882 044a 4FF41641 		mov	r1, #38400
 375:./modules/gps/gps_ubx_ucenter.c ****     gps_ubx_ucenter.baud_run = 38400;
 1883              		.loc 1 375 0
 1884 044e 4FF41645 		mov	r5, #38400
 374:./modules/gps/gps_ubx_ucenter.c ****     GpsUartSetBaudrate(B38400);
 1885              		.loc 1 374 0
 1886 0452 FFF7FEFF 		bl	uart_periph_set_baudrate
 1887              	.LVL136:
 1888              		.loc 1 375 0
 1889 0456 E580     		strh	r5, [r4, #6]	@ movhi
 1890              	.LBB367:
 1891              	.LBB368:
 255:./modules/gps/gps_ubx_ucenter.c ****     if (gps_ubx_ucenter.sw_ver_h < 5)
 1892              		.loc 1 255 0
 1893 0458 247A     		ldrb	r4, [r4, #8]	@ zero_extendqisi2
 1894              	.LBB369:
 257:./modules/gps/gps_ubx_ucenter.c ****       UbxSend_CFG_NAV(NAV_DYN_AIRBORNE_2G, 3, 16, 24, 20, 5, 0, 0x3C, 0x3C, 0x14, 0x03E8 ,0x0000, 0
 1895              		.loc 1 257 0
 1896 045a B521     		movs	r1, #181
 1897              	.LBE369:
 255:./modules/gps/gps_ubx_ucenter.c ****     if (gps_ubx_ucenter.sw_ver_h < 5)
 1898              		.loc 1 255 0
 1899 045c 042C     		cmp	r4, #4
 1900              	.LBB450:
 257:./modules/gps/gps_ubx_ucenter.c ****       UbxSend_CFG_NAV(NAV_DYN_AIRBORNE_2G, 3, 16, 24, 20, 5, 0, 0x3C, 0x3C, 0x14, 0x03E8 ,0x0000, 0
 1901              		.loc 1 257 0
 1902 045e CD48     		ldr	r0, .L110
 1903 0460 CD4C     		ldr	r4, .L110+4
 1904              	.LBE450:
 255:./modules/gps/gps_ubx_ucenter.c ****     if (gps_ubx_ucenter.sw_ver_h < 5)
 1905              		.loc 1 255 0
 1906 0462 00F29B81 		bhi	.L92
 1907              	.LBB451:
 257:./modules/gps/gps_ubx_ucenter.c ****       UbxSend_CFG_NAV(NAV_DYN_AIRBORNE_2G, 3, 16, 24, 20, 5, 0, 0x3C, 0x3C, 0x14, 0x03E8 ,0x0000, 0
 1908              		.loc 1 257 0
 1909 0466 FFF7FEFF 		bl	uart_transmit
 1910              	.LVL137:
 1911 046a 6221     		movs	r1, #98
 1912 046c C948     		ldr	r0, .L110
 1913 046e 0025     		movs	r5, #0
 1914 0470 FFF7FEFF 		bl	uart_transmit
 1915              	.LVL138:
 1916              	.LBB370:
 1917 0474 0621     		movs	r1, #6
 1918 0476 C748     		ldr	r0, .L110
 1919              	.LBE370:
 1920 0478 84F81051 		strb	r5, [r4, #272]
 1921 047c 84F80F51 		strb	r5, [r4, #271]
 1922              	.LVL139:
 1923              	.LBB371:
 1924 0480 FFF7FEFF 		bl	uart_transmit
 1925              	.LVL140:
 1926 0484 94F80F11 		ldrb	r1, [r4, #271]	@ zero_extendqisi2
 1927 0488 94F81031 		ldrb	r3, [r4, #272]	@ zero_extendqisi2
 1928 048c 8A1D     		adds	r2, r1, #6
 1929 048e D0B2     		uxtb	r0, r2
 1930 0490 C118     		adds	r1, r0, r3
 1931 0492 84F80F01 		strb	r0, [r4, #271]
 1932 0496 84F81011 		strb	r1, [r4, #272]
 1933              	.LVL141:
 1934              	.LBE371:
 1935              	.LBB372:
 1936 049a BE48     		ldr	r0, .L110
 1937 049c 0321     		movs	r1, #3
 1938 049e FFF7FEFF 		bl	uart_transmit
 1939              	.LVL142:
 1940 04a2 94F80F21 		ldrb	r2, [r4, #271]	@ zero_extendqisi2
 1941 04a6 94F81011 		ldrb	r1, [r4, #272]	@ zero_extendqisi2
 1942 04aa D01C     		adds	r0, r2, #3
 1943 04ac C3B2     		uxtb	r3, r0
 1944 04ae 5A18     		adds	r2, r3, r1
 1945              	.LBE372:
 1946              	.LBB373:
 1947              	.LBB374:
 1948 04b0 B848     		ldr	r0, .L110
 1949 04b2 1C21     		movs	r1, #28
 1950              	.LBE374:
 1951              	.LBE373:
 1952              	.LBB379:
 1953 04b4 84F80F31 		strb	r3, [r4, #271]
 1954 04b8 84F81021 		strb	r2, [r4, #272]
 1955              	.LVL143:
 1956              	.LBE379:
 1957              	.LBB380:
 1958              	.LBB375:
 1959 04bc FFF7FEFF 		bl	uart_transmit
 1960              	.LVL144:
 1961 04c0 94F80F01 		ldrb	r0, [r4, #271]	@ zero_extendqisi2
 1962 04c4 94F81011 		ldrb	r1, [r4, #272]	@ zero_extendqisi2
 1963 04c8 1C30     		adds	r0, r0, #28
 1964 04ca C3B2     		uxtb	r3, r0
 1965 04cc 5A18     		adds	r2, r3, r1
 1966              	.LBE375:
 1967              	.LBB376:
 1968 04ce B148     		ldr	r0, .L110
 1969 04d0 2946     		mov	r1, r5
 1970              	.LBE376:
 1971              	.LBB377:
 1972 04d2 84F81021 		strb	r2, [r4, #272]
 1973              	.LVL145:
 1974 04d6 84F80F31 		strb	r3, [r4, #271]
 1975              	.LBE377:
 1976              	.LBB378:
 1977 04da FFF7FEFF 		bl	uart_transmit
 1978              	.LVL146:
 1979 04de 94F81001 		ldrb	r0, [r4, #272]	@ zero_extendqisi2
 1980 04e2 94F80F31 		ldrb	r3, [r4, #271]	@ zero_extendqisi2
 1981 04e6 C118     		adds	r1, r0, r3
 1982 04e8 84F81011 		strb	r1, [r4, #272]
 1983              	.LVL147:
 1984              	.LBE378:
 1985              	.LBE380:
 1986              	.LBB381:
 1987 04ec A948     		ldr	r0, .L110
 1988 04ee 0621     		movs	r1, #6
 1989 04f0 FFF7FEFF 		bl	uart_transmit
 1990              	.LVL148:
 1991 04f4 94F80F21 		ldrb	r2, [r4, #271]	@ zero_extendqisi2
 1992 04f8 94F81011 		ldrb	r1, [r4, #272]	@ zero_extendqisi2
 1993 04fc 901D     		adds	r0, r2, #6
 1994 04fe C3B2     		uxtb	r3, r0
 1995 0500 5A18     		adds	r2, r3, r1
 1996              	.LBE381:
 1997              	.LBB382:
 1998 0502 A448     		ldr	r0, .L110
 1999 0504 0321     		movs	r1, #3
 2000              	.LBE382:
 2001              	.LBB383:
 2002 0506 84F80F31 		strb	r3, [r4, #271]
 2003 050a 84F81021 		strb	r2, [r4, #272]
 2004              	.LVL149:
 2005              	.LBE383:
 2006              	.LBB384:
 2007 050e FFF7FEFF 		bl	uart_transmit
 2008              	.LVL150:
 2009 0512 94F80F01 		ldrb	r0, [r4, #271]	@ zero_extendqisi2
 2010 0516 94F81021 		ldrb	r2, [r4, #272]	@ zero_extendqisi2
 2011 051a C31C     		adds	r3, r0, #3
 2012 051c D9B2     		uxtb	r1, r3
 2013 051e 8818     		adds	r0, r1, r2
 2014 0520 84F80F11 		strb	r1, [r4, #271]
 2015 0524 84F81001 		strb	r0, [r4, #272]
 2016              	.LVL151:
 2017              	.LBE384:
 2018              	.LBB385:
 2019 0528 1021     		movs	r1, #16
 2020 052a 9A48     		ldr	r0, .L110
 2021 052c FFF7FEFF 		bl	uart_transmit
 2022              	.LVL152:
 2023 0530 94F80F31 		ldrb	r3, [r4, #271]	@ zero_extendqisi2
 2024 0534 94F81021 		ldrb	r2, [r4, #272]	@ zero_extendqisi2
 2025 0538 1033     		adds	r3, r3, #16
 2026 053a D9B2     		uxtb	r1, r3
 2027 053c 8818     		adds	r0, r1, r2
 2028 053e 84F80F11 		strb	r1, [r4, #271]
 2029 0542 84F81001 		strb	r0, [r4, #272]
 2030              	.LVL153:
 2031              	.LBE385:
 2032              	.LBB386:
 2033 0546 1821     		movs	r1, #24
 2034 0548 9248     		ldr	r0, .L110
 2035 054a FFF7FEFF 		bl	uart_transmit
 2036              	.LVL154:
 2037 054e 94F80F31 		ldrb	r3, [r4, #271]	@ zero_extendqisi2
 2038 0552 94F81021 		ldrb	r2, [r4, #272]	@ zero_extendqisi2
 2039 0556 1833     		adds	r3, r3, #24
 2040 0558 D9B2     		uxtb	r1, r3
 2041 055a 8818     		adds	r0, r1, r2
 2042 055c 84F80F11 		strb	r1, [r4, #271]
 2043 0560 84F81001 		strb	r0, [r4, #272]
 2044              	.LVL155:
 2045              	.LBE386:
 2046              	.LBB387:
 2047 0564 1421     		movs	r1, #20
 2048 0566 8B48     		ldr	r0, .L110
 2049 0568 FFF7FEFF 		bl	uart_transmit
 2050              	.LVL156:
 2051 056c 94F80F31 		ldrb	r3, [r4, #271]	@ zero_extendqisi2
 2052 0570 94F81021 		ldrb	r2, [r4, #272]	@ zero_extendqisi2
 2053 0574 1433     		adds	r3, r3, #20
 2054 0576 D9B2     		uxtb	r1, r3
 2055 0578 8818     		adds	r0, r1, r2
 2056 057a 84F80F11 		strb	r1, [r4, #271]
 2057 057e 84F81001 		strb	r0, [r4, #272]
 2058              	.LVL157:
 2059              	.LBE387:
 2060              	.LBB388:
 2061 0582 0521     		movs	r1, #5
 2062 0584 8348     		ldr	r0, .L110
 2063 0586 FFF7FEFF 		bl	uart_transmit
 2064              	.LVL158:
 2065 058a 94F80F31 		ldrb	r3, [r4, #271]	@ zero_extendqisi2
 2066 058e 94F81021 		ldrb	r2, [r4, #272]	@ zero_extendqisi2
 2067 0592 591D     		adds	r1, r3, #5
 2068 0594 C8B2     		uxtb	r0, r1
 2069 0596 8318     		adds	r3, r0, r2
 2070 0598 84F80F01 		strb	r0, [r4, #271]
 2071              	.LBE388:
 2072              	.LBB389:
 2073 059c 2946     		mov	r1, r5
 2074 059e 7D48     		ldr	r0, .L110
 2075              	.LBE389:
 2076              	.LBB390:
 2077 05a0 84F81031 		strb	r3, [r4, #272]
 2078              	.LVL159:
 2079              	.LBE390:
 2080              	.LBB391:
 2081 05a4 FFF7FEFF 		bl	uart_transmit
 2082              	.LVL160:
 2083 05a8 94F81011 		ldrb	r1, [r4, #272]	@ zero_extendqisi2
 2084 05ac 94F80F01 		ldrb	r0, [r4, #271]	@ zero_extendqisi2
 2085 05b0 0A18     		adds	r2, r1, r0
 2086              	.LBE391:
 2087              	.LBB392:
 2088 05b2 3C21     		movs	r1, #60
 2089 05b4 7748     		ldr	r0, .L110
 2090              	.LBE392:
 2091              	.LBB393:
 2092 05b6 84F81021 		strb	r2, [r4, #272]
 2093              	.LVL161:
 2094              	.LBE393:
 2095              	.LBB394:
 2096 05ba FFF7FEFF 		bl	uart_transmit
 2097              	.LVL162:
 2098 05be 94F80F31 		ldrb	r3, [r4, #271]	@ zero_extendqisi2
 2099 05c2 94F81001 		ldrb	r0, [r4, #272]	@ zero_extendqisi2
 2100 05c6 3C33     		adds	r3, r3, #60
 2101 05c8 D9B2     		uxtb	r1, r3
 2102 05ca 0A18     		adds	r2, r1, r0
 2103 05cc 84F80F11 		strb	r1, [r4, #271]
 2104              	.LBE394:
 2105              	.LBB395:
 2106 05d0 7048     		ldr	r0, .L110
 2107 05d2 3C21     		movs	r1, #60
 2108              	.LBE395:
 2109              	.LBB396:
 2110 05d4 84F81021 		strb	r2, [r4, #272]
 2111              	.LVL163:
 2112              	.LBE396:
 2113              	.LBB397:
 2114 05d8 FFF7FEFF 		bl	uart_transmit
 2115              	.LVL164:
 2116 05dc 94F80F31 		ldrb	r3, [r4, #271]	@ zero_extendqisi2
 2117 05e0 94F81001 		ldrb	r0, [r4, #272]	@ zero_extendqisi2
 2118 05e4 3C33     		adds	r3, r3, #60
 2119 05e6 D9B2     		uxtb	r1, r3
 2120 05e8 0A18     		adds	r2, r1, r0
 2121 05ea 84F80F11 		strb	r1, [r4, #271]
 2122              	.LBE397:
 2123              	.LBB398:
 2124 05ee 6948     		ldr	r0, .L110
 2125 05f0 1421     		movs	r1, #20
 2126              	.LBE398:
 2127              	.LBB399:
 2128 05f2 84F81021 		strb	r2, [r4, #272]
 2129              	.LVL165:
 2130              	.LBE399:
 2131              	.LBB400:
 2132 05f6 FFF7FEFF 		bl	uart_transmit
 2133              	.LVL166:
 2134 05fa 94F80F31 		ldrb	r3, [r4, #271]	@ zero_extendqisi2
 2135 05fe 94F81001 		ldrb	r0, [r4, #272]	@ zero_extendqisi2
 2136 0602 1433     		adds	r3, r3, #20
 2137 0604 D9B2     		uxtb	r1, r3
 2138 0606 0A18     		adds	r2, r1, r0
 2139 0608 84F80F11 		strb	r1, [r4, #271]
 2140              	.LBE400:
 2141              	.LBB401:
 2142 060c 6148     		ldr	r0, .L110
 2143 060e E821     		movs	r1, #232
 2144              	.LBE401:
 2145              	.LBB402:
 2146 0610 84F81021 		strb	r2, [r4, #272]
 2147              	.LVL167:
 2148              	.LBE402:
 2149              	.LBB403:
 2150 0614 FFF7FEFF 		bl	uart_transmit
 2151              	.LVL168:
 2152 0618 94F80F31 		ldrb	r3, [r4, #271]	@ zero_extendqisi2
 2153 061c 94F81001 		ldrb	r0, [r4, #272]	@ zero_extendqisi2
 2154 0620 183B     		subs	r3, r3, #24
 2155 0622 D9B2     		uxtb	r1, r3
 2156 0624 0A18     		adds	r2, r1, r0
 2157 0626 84F80F11 		strb	r1, [r4, #271]
 2158              	.LBE403:
 2159              	.LBB404:
 2160 062a 5A48     		ldr	r0, .L110
 2161 062c 0321     		movs	r1, #3
 2162              	.LBE404:
 2163              	.LBB405:
 2164 062e 84F81021 		strb	r2, [r4, #272]
 2165              	.LVL169:
 2166              	.LBE405:
 2167              	.LBB406:
 2168 0632 FFF7FEFF 		bl	uart_transmit
 2169              	.LVL170:
 2170 0636 94F80F31 		ldrb	r3, [r4, #271]	@ zero_extendqisi2
 2171 063a 94F81021 		ldrb	r2, [r4, #272]	@ zero_extendqisi2
 2172 063e D91C     		adds	r1, r3, #3
 2173 0640 C8B2     		uxtb	r0, r1
 2174 0642 8318     		adds	r3, r0, r2
 2175 0644 84F80F01 		strb	r0, [r4, #271]
 2176              	.LBE406:
 2177              	.LBB407:
 2178 0648 2946     		mov	r1, r5
 2179 064a 5248     		ldr	r0, .L110
 2180              	.LBE407:
 2181              	.LBB408:
 2182 064c 84F81031 		strb	r3, [r4, #272]
 2183              	.LVL171:
 2184              	.LBE408:
 2185              	.LBB409:
 2186 0650 FFF7FEFF 		bl	uart_transmit
 2187              	.LVL172:
 2188 0654 94F81011 		ldrb	r1, [r4, #272]	@ zero_extendqisi2
 2189 0658 94F80F01 		ldrb	r0, [r4, #271]	@ zero_extendqisi2
 2190 065c 0A18     		adds	r2, r1, r0
 2191              	.LBE409:
 2192              	.LBB410:
 2193 065e 4D48     		ldr	r0, .L110
 2194 0660 2946     		mov	r1, r5
 2195              	.LBE410:
 2196              	.LBB411:
 2197 0662 84F81021 		strb	r2, [r4, #272]
 2198              	.LVL173:
 2199              	.LBE411:
 2200              	.LBB412:
 2201 0666 FFF7FEFF 		bl	uart_transmit
 2202              	.LVL174:
 2203 066a 94F81011 		ldrb	r1, [r4, #272]	@ zero_extendqisi2
 2204 066e 94F80F31 		ldrb	r3, [r4, #271]	@ zero_extendqisi2
 2205 0672 C818     		adds	r0, r1, r3
 2206 0674 84F81001 		strb	r0, [r4, #272]
 2207              	.LVL175:
 2208              	.LBE412:
 2209              	.LBB413:
 2210 0678 2946     		mov	r1, r5
 2211 067a 4648     		ldr	r0, .L110
 2212 067c FFF7FEFF 		bl	uart_transmit
 2213              	.LVL176:
 2214 0680 94F81021 		ldrb	r2, [r4, #272]	@ zero_extendqisi2
 2215 0684 94F80F11 		ldrb	r1, [r4, #271]	@ zero_extendqisi2
 2216              	.LBE413:
 2217              	.LBB414:
 2218 0688 4248     		ldr	r0, .L110
 2219              	.LBE414:
 2220              	.LBB415:
 2221 068a 5318     		adds	r3, r2, r1
 2222              	.LBE415:
 2223              	.LBB416:
 2224 068c 1721     		movs	r1, #23
 2225              	.LBE416:
 2226              	.LBB417:
 2227 068e 84F81031 		strb	r3, [r4, #272]
 2228              	.LVL177:
 2229              	.LBE417:
 2230              	.LBB418:
 2231 0692 FFF7FEFF 		bl	uart_transmit
 2232              	.LVL178:
 2233 0696 94F80F01 		ldrb	r0, [r4, #271]	@ zero_extendqisi2
 2234 069a 94F81021 		ldrb	r2, [r4, #272]	@ zero_extendqisi2
 2235 069e 1730     		adds	r0, r0, #23
 2236 06a0 C1B2     		uxtb	r1, r0
 2237 06a2 8B18     		adds	r3, r1, r2
 2238 06a4 84F80F11 		strb	r1, [r4, #271]
 2239              	.LBE418:
 2240              	.LBB419:
 2241 06a8 3A48     		ldr	r0, .L110
 2242 06aa FA21     		movs	r1, #250
 2243              	.LBE419:
 2244              	.LBB420:
 2245 06ac 84F81031 		strb	r3, [r4, #272]
 2246              	.LVL179:
 2247              	.LBE420:
 2248              	.LBB421:
 2249 06b0 FFF7FEFF 		bl	uart_transmit
 2250              	.LVL180:
 2251 06b4 94F80F01 		ldrb	r0, [r4, #271]	@ zero_extendqisi2
 2252 06b8 94F81021 		ldrb	r2, [r4, #272]	@ zero_extendqisi2
 2253 06bc 811F     		subs	r1, r0, #6
 2254 06be CBB2     		uxtb	r3, r1
 2255 06c0 9818     		adds	r0, r3, r2
 2256 06c2 84F81001 		strb	r0, [r4, #272]
 2257              	.LVL181:
 2258              	.LBE421:
 2259              	.LBB422:
 2260 06c6 2946     		mov	r1, r5
 2261 06c8 3248     		ldr	r0, .L110
 2262              	.LBE422:
 2263              	.LBB423:
 2264 06ca 84F80F31 		strb	r3, [r4, #271]
 2265              	.LBE423:
 2266              	.LBB424:
 2267 06ce FFF7FEFF 		bl	uart_transmit
 2268              	.LVL182:
 2269 06d2 94F81011 		ldrb	r1, [r4, #272]	@ zero_extendqisi2
 2270 06d6 94F80F31 		ldrb	r3, [r4, #271]	@ zero_extendqisi2
 2271              	.LBE424:
 2272              	.LBB425:
 2273 06da 2E48     		ldr	r0, .L110
 2274              	.LBE425:
 2275              	.LBB426:
 2276 06dc CA18     		adds	r2, r1, r3
 2277              	.LBE426:
 2278              	.LBB427:
 2279 06de FA21     		movs	r1, #250
 2280              	.LBE427:
 2281              	.LBB428:
 2282 06e0 84F81021 		strb	r2, [r4, #272]
 2283              	.LVL183:
 2284              	.LBE428:
 2285              	.LBB429:
 2286 06e4 FFF7FEFF 		bl	uart_transmit
 2287              	.LVL184:
 2288 06e8 94F80F01 		ldrb	r0, [r4, #271]	@ zero_extendqisi2
 2289 06ec 94F81021 		ldrb	r2, [r4, #272]	@ zero_extendqisi2
 2290 06f0 811F     		subs	r1, r0, #6
 2291 06f2 CBB2     		uxtb	r3, r1
 2292 06f4 9818     		adds	r0, r3, r2
 2293 06f6 84F81001 		strb	r0, [r4, #272]
 2294              	.LVL185:
 2295              	.LBE429:
 2296              	.LBB430:
 2297 06fa 2946     		mov	r1, r5
 2298 06fc 2548     		ldr	r0, .L110
 2299              	.LBE430:
 2300              	.LBB431:
 2301 06fe 84F80F31 		strb	r3, [r4, #271]
 2302              	.LBE431:
 2303              	.LBB432:
 2304 0702 FFF7FEFF 		bl	uart_transmit
 2305              	.LVL186:
 2306 0706 94F81011 		ldrb	r1, [r4, #272]	@ zero_extendqisi2
 2307 070a 94F80F31 		ldrb	r3, [r4, #271]	@ zero_extendqisi2
 2308              	.LBE432:
 2309              	.LBB433:
 2310 070e 2148     		ldr	r0, .L110
 2311              	.LBE433:
 2312              	.LBB434:
 2313 0710 CA18     		adds	r2, r1, r3
 2314              	.LBE434:
 2315              	.LBB435:
 2316 0712 6421     		movs	r1, #100
 2317              	.LBE435:
 2318              	.LBB436:
 2319 0714 84F81021 		strb	r2, [r4, #272]
 2320              	.LVL187:
 2321              	.LBE436:
 2322              	.LBB437:
 2323 0718 FFF7FEFF 		bl	uart_transmit
 2324              	.LVL188:
 2325 071c 94F80F01 		ldrb	r0, [r4, #271]	@ zero_extendqisi2
 2326 0720 94F81031 		ldrb	r3, [r4, #272]	@ zero_extendqisi2
 2327 0724 6430     		adds	r0, r0, #100
 2328 0726 C1B2     		uxtb	r1, r0
 2329 0728 CA18     		adds	r2, r1, r3
 2330 072a 84F80F11 		strb	r1, [r4, #271]
 2331              	.LBE437:
 2332              	.LBB438:
 2333 072e 1948     		ldr	r0, .L110
 2334 0730 2946     		mov	r1, r5
 2335              	.LBE438:
 2336              	.LBB439:
 2337 0732 84F81021 		strb	r2, [r4, #272]
 2338              	.LVL189:
 2339              	.LBE439:
 2340              	.LBB440:
 2341 0736 FFF7FEFF 		bl	uart_transmit
 2342              	.LVL190:
 2343 073a 94F81001 		ldrb	r0, [r4, #272]	@ zero_extendqisi2
 2344 073e 94F80F11 		ldrb	r1, [r4, #271]	@ zero_extendqisi2
 2345 0742 4318     		adds	r3, r0, r1
 2346              	.LBE440:
 2347              	.LBB441:
 2348 0744 2C21     		movs	r1, #44
 2349 0746 1348     		ldr	r0, .L110
 2350              	.LBE441:
 2351              	.LBB442:
 2352 0748 84F81031 		strb	r3, [r4, #272]
 2353              	.LVL191:
 2354              	.LBE442:
 2355              	.LBB443:
 2356 074c FFF7FEFF 		bl	uart_transmit
 2357              	.LVL192:
 2358 0750 94F80F21 		ldrb	r2, [r4, #271]	@ zero_extendqisi2
 2359 0754 94F81011 		ldrb	r1, [r4, #272]	@ zero_extendqisi2
 2360 0758 2C32     		adds	r2, r2, #44
 2361 075a D0B2     		uxtb	r0, r2
 2362 075c 4318     		adds	r3, r0, r1
 2363 075e 84F80F01 		strb	r0, [r4, #271]
 2364              	.LBE443:
 2365              	.LBB444:
 2366 0762 0121     		movs	r1, #1
 2367 0764 0B48     		ldr	r0, .L110
 2368              	.LBE444:
 2369              	.LBB445:
 2370 0766 84F81031 		strb	r3, [r4, #272]
 2371              	.LVL193:
 2372              	.LBE445:
 2373              	.LBB446:
 2374 076a FFF7FEFF 		bl	uart_transmit
 2375              	.LVL194:
 2376 076e 94F80F21 		ldrb	r2, [r4, #271]	@ zero_extendqisi2
 2377 0772 94F81031 		ldrb	r3, [r4, #272]	@ zero_extendqisi2
 2378 0776 501C     		adds	r0, r2, #1
 2379 0778 C1B2     		uxtb	r1, r0
 2380 077a CA18     		adds	r2, r1, r3
 2381 077c 84F80F11 		strb	r1, [r4, #271]
 2382              	.LBE446:
 2383              	.LBB447:
 2384 0780 0448     		ldr	r0, .L110
 2385 0782 0F21     		movs	r1, #15
 2386              	.LBE447:
 2387              	.LBB448:
 2388 0784 84F81021 		strb	r2, [r4, #272]
 2389              	.LVL195:
 2390              	.LBE448:
 2391              	.LBB449:
 2392 0788 FFF7FEFF 		bl	uart_transmit
 2393              	.LVL196:
 2394 078c 94F80F11 		ldrb	r1, [r4, #271]	@ zero_extendqisi2
 2395 0790 0F31     		adds	r1, r1, #15
 2396 0792 9BE2     		b	.L97
 2397              	.L111:
 2398              		.align	2
 2399              	.L110:
 2400 0794 00000000 		.word	uart3
 2401 0798 00000000 		.word	.LANCHOR0
 2402              	.LVL197:
 2403              	.L92:
 2404              	.LBE449:
 2405              	.LBE451:
 2406              	.LBB452:
 261:./modules/gps/gps_ubx_ucenter.c ****       UbxSend_CFG_NAV5(0x05, NAV5_DYN_AIRBORNE_2G, NAV5_3D_ONLY, IGNORED, IGNORED, IGNORED, IGNORED
 2407              		.loc 1 261 0
 2408 079c FFF7FEFF 		bl	uart_transmit
 2409              	.LVL198:
 2410 07a0 6221     		movs	r1, #98
 2411 07a2 D548     		ldr	r0, .L112
 2412 07a4 0025     		movs	r5, #0
 2413 07a6 FFF7FEFF 		bl	uart_transmit
 2414              	.LVL199:
 2415              	.LBB453:
 2416 07aa 0621     		movs	r1, #6
 2417 07ac D248     		ldr	r0, .L112
 2418              	.LBE453:
 2419 07ae 84F81051 		strb	r5, [r4, #272]
 2420 07b2 84F80F51 		strb	r5, [r4, #271]
 2421              	.LVL200:
 2422              	.LBB454:
 2423 07b6 FFF7FEFF 		bl	uart_transmit
 2424              	.LVL201:
 2425 07ba 94F80F21 		ldrb	r2, [r4, #271]	@ zero_extendqisi2
 2426 07be 94F81031 		ldrb	r3, [r4, #272]	@ zero_extendqisi2
 2427 07c2 901D     		adds	r0, r2, #6
 2428 07c4 C1B2     		uxtb	r1, r0
 2429 07c6 CA18     		adds	r2, r1, r3
 2430 07c8 84F80F11 		strb	r1, [r4, #271]
 2431              	.LBE454:
 2432              	.LBB455:
 2433 07cc CA48     		ldr	r0, .L112
 2434 07ce 2421     		movs	r1, #36
 2435              	.LBE455:
 2436              	.LBB456:
 2437 07d0 84F81021 		strb	r2, [r4, #272]
 2438              	.LVL202:
 2439              	.LBE456:
 2440              	.LBB457:
 2441 07d4 FFF7FEFF 		bl	uart_transmit
 2442              	.LVL203:
 2443 07d8 94F80F01 		ldrb	r0, [r4, #271]	@ zero_extendqisi2
 2444 07dc 94F81031 		ldrb	r3, [r4, #272]	@ zero_extendqisi2
 2445 07e0 2430     		adds	r0, r0, #36
 2446 07e2 C1B2     		uxtb	r1, r0
 2447 07e4 CA18     		adds	r2, r1, r3
 2448 07e6 84F80F11 		strb	r1, [r4, #271]
 2449              	.LBE457:
 2450              	.LBB458:
 2451              	.LBB459:
 2452 07ea C348     		ldr	r0, .L112
 2453 07ec 2421     		movs	r1, #36
 2454              	.LBE459:
 2455              	.LBE458:
 2456              	.LBB465:
 2457 07ee 84F81021 		strb	r2, [r4, #272]
 2458              	.LVL204:
 2459              	.LBE465:
 2460              	.LBB466:
 2461              	.LBB460:
 2462 07f2 FFF7FEFF 		bl	uart_transmit
 2463              	.LVL205:
 2464 07f6 94F80F01 		ldrb	r0, [r4, #271]	@ zero_extendqisi2
 2465 07fa 94F81031 		ldrb	r3, [r4, #272]	@ zero_extendqisi2
 2466 07fe 2430     		adds	r0, r0, #36
 2467 0800 C1B2     		uxtb	r1, r0
 2468 0802 CA18     		adds	r2, r1, r3
 2469 0804 84F80F11 		strb	r1, [r4, #271]
 2470              	.LBE460:
 2471              	.LBB461:
 2472 0808 BB48     		ldr	r0, .L112
 2473 080a 2946     		mov	r1, r5
 2474              	.LBE461:
 2475              	.LBB462:
 2476 080c 84F81021 		strb	r2, [r4, #272]
 2477              	.LVL206:
 2478              	.LBE462:
 2479              	.LBB463:
 2480 0810 FFF7FEFF 		bl	uart_transmit
 2481              	.LVL207:
 2482 0814 94F81001 		ldrb	r0, [r4, #272]	@ zero_extendqisi2
 2483 0818 94F80F11 		ldrb	r1, [r4, #271]	@ zero_extendqisi2
 2484 081c 4318     		adds	r3, r0, r1
 2485              	.LBE463:
 2486              	.LBE466:
 2487              	.LBB467:
 2488 081e 0521     		movs	r1, #5
 2489 0820 B548     		ldr	r0, .L112
 2490              	.LBE467:
 2491              	.LBB468:
 2492              	.LBB464:
 2493 0822 84F81031 		strb	r3, [r4, #272]
 2494              	.LVL208:
 2495              	.LBE464:
 2496              	.LBE468:
 2497              	.LBB469:
 2498 0826 FFF7FEFF 		bl	uart_transmit
 2499              	.LVL209:
 2500 082a 94F80F21 		ldrb	r2, [r4, #271]	@ zero_extendqisi2
 2501 082e 94F81031 		ldrb	r3, [r4, #272]	@ zero_extendqisi2
 2502 0832 501D     		adds	r0, r2, #5
 2503 0834 C1B2     		uxtb	r1, r0
 2504 0836 CA18     		adds	r2, r1, r3
 2505 0838 84F80F11 		strb	r1, [r4, #271]
 2506              	.LBE469:
 2507              	.LBB470:
 2508 083c AE48     		ldr	r0, .L112
 2509 083e 2946     		mov	r1, r5
 2510              	.LBE470:
 2511              	.LBB471:
 2512 0840 84F81021 		strb	r2, [r4, #272]
 2513              	.LVL210:
 2514              	.LBE471:
 2515              	.LBB472:
 2516 0844 FFF7FEFF 		bl	uart_transmit
 2517              	.LVL211:
 2518 0848 94F81001 		ldrb	r0, [r4, #272]	@ zero_extendqisi2
 2519 084c 94F80F11 		ldrb	r1, [r4, #271]	@ zero_extendqisi2
 2520 0850 4318     		adds	r3, r0, r1
 2521              	.LBE472:
 2522              	.LBB473:
 2523 0852 0721     		movs	r1, #7
 2524 0854 A848     		ldr	r0, .L112
 2525              	.LBE473:
 2526              	.LBB474:
 2527 0856 84F81031 		strb	r3, [r4, #272]
 2528              	.LVL212:
 2529              	.LBE474:
 2530              	.LBB475:
 2531 085a FFF7FEFF 		bl	uart_transmit
 2532              	.LVL213:
 2533 085e 94F80F21 		ldrb	r2, [r4, #271]	@ zero_extendqisi2
 2534 0862 94F81031 		ldrb	r3, [r4, #272]	@ zero_extendqisi2
 2535 0866 D01D     		adds	r0, r2, #7
 2536 0868 C1B2     		uxtb	r1, r0
 2537 086a CA18     		adds	r2, r1, r3
 2538 086c 84F80F11 		strb	r1, [r4, #271]
 2539              	.LBE475:
 2540              	.LBB476:
 2541 0870 A148     		ldr	r0, .L112
 2542 0872 0221     		movs	r1, #2
 2543              	.LBE476:
 2544              	.LBB477:
 2545 0874 84F81021 		strb	r2, [r4, #272]
 2546              	.LVL214:
 2547              	.LBE477:
 2548              	.LBB478:
 2549 0878 FFF7FEFF 		bl	uart_transmit
 2550              	.LVL215:
 2551 087c 94F80F01 		ldrb	r0, [r4, #271]	@ zero_extendqisi2
 2552 0880 94F81021 		ldrb	r2, [r4, #272]	@ zero_extendqisi2
 2553 0884 811C     		adds	r1, r0, #2
 2554 0886 CBB2     		uxtb	r3, r1
 2555 0888 9818     		adds	r0, r3, r2
 2556 088a 84F81001 		strb	r0, [r4, #272]
 2557              	.LVL216:
 2558              	.LBE478:
 2559              	.LBB479:
 2560 088e 2946     		mov	r1, r5
 2561 0890 9948     		ldr	r0, .L112
 2562              	.LBE479:
 2563              	.LBB480:
 2564 0892 84F80F31 		strb	r3, [r4, #271]
 2565              	.LBE480:
 2566              	.LBB481:
 2567 0896 FFF7FEFF 		bl	uart_transmit
 2568              	.LVL217:
 2569 089a 94F81011 		ldrb	r1, [r4, #272]	@ zero_extendqisi2
 2570 089e 94F80F31 		ldrb	r3, [r4, #271]	@ zero_extendqisi2
 2571              	.LBE481:
 2572              	.LBB482:
 2573 08a2 9548     		ldr	r0, .L112
 2574              	.LBE482:
 2575              	.LBB483:
 2576 08a4 CA18     		adds	r2, r1, r3
 2577              	.LBE483:
 2578              	.LBB484:
 2579 08a6 2946     		mov	r1, r5
 2580              	.LBE484:
 2581              	.LBB485:
 2582 08a8 84F81021 		strb	r2, [r4, #272]
 2583              	.LVL218:
 2584              	.LBE485:
 2585              	.LBB486:
 2586 08ac FFF7FEFF 		bl	uart_transmit
 2587              	.LVL219:
 2588 08b0 94F81001 		ldrb	r0, [r4, #272]	@ zero_extendqisi2
 2589 08b4 94F80F11 		ldrb	r1, [r4, #271]	@ zero_extendqisi2
 2590 08b8 4318     		adds	r3, r0, r1
 2591              	.LBE486:
 2592              	.LBB487:
 2593 08ba 8F48     		ldr	r0, .L112
 2594 08bc 2946     		mov	r1, r5
 2595              	.LBE487:
 2596              	.LBB488:
 2597 08be 84F81031 		strb	r3, [r4, #272]
 2598              	.LVL220:
 2599              	.LBE488:
 2600              	.LBB489:
 2601 08c2 FFF7FEFF 		bl	uart_transmit
 2602              	.LVL221:
 2603 08c6 94F81021 		ldrb	r2, [r4, #272]	@ zero_extendqisi2
 2604 08ca 94F80F01 		ldrb	r0, [r4, #271]	@ zero_extendqisi2
 2605 08ce 1118     		adds	r1, r2, r0
 2606 08d0 84F81011 		strb	r1, [r4, #272]
 2607              	.LVL222:
 2608              	.LBE489:
 2609              	.LBB490:
 2610 08d4 8848     		ldr	r0, .L112
 2611 08d6 2946     		mov	r1, r5
 2612 08d8 FFF7FEFF 		bl	uart_transmit
 2613              	.LVL223:
 2614 08dc 94F81021 		ldrb	r2, [r4, #272]	@ zero_extendqisi2
 2615 08e0 94F80F31 		ldrb	r3, [r4, #271]	@ zero_extendqisi2
 2616              	.LBE490:
 2617              	.LBB491:
 2618 08e4 2946     		mov	r1, r5
 2619              	.LBE491:
 2620              	.LBB492:
 2621 08e6 D018     		adds	r0, r2, r3
 2622 08e8 84F81001 		strb	r0, [r4, #272]
 2623              	.LVL224:
 2624              	.LBE492:
 2625              	.LBB493:
 2626 08ec 8248     		ldr	r0, .L112
 2627 08ee FFF7FEFF 		bl	uart_transmit
 2628              	.LVL225:
 2629 08f2 94F81011 		ldrb	r1, [r4, #272]	@ zero_extendqisi2
 2630 08f6 94F80F21 		ldrb	r2, [r4, #271]	@ zero_extendqisi2
 2631              	.LBE493:
 2632              	.LBB494:
 2633 08fa 7F48     		ldr	r0, .L112
 2634              	.LBE494:
 2635              	.LBB495:
 2636 08fc 8B18     		adds	r3, r1, r2
 2637              	.LBE495:
 2638              	.LBB496:
 2639 08fe 2946     		mov	r1, r5
 2640              	.LBE496:
 2641              	.LBB497:
 2642 0900 84F81031 		strb	r3, [r4, #272]
 2643              	.LVL226:
 2644              	.LBE497:
 2645              	.LBB498:
 2646 0904 FFF7FEFF 		bl	uart_transmit
 2647              	.LVL227:
 2648 0908 94F81001 		ldrb	r0, [r4, #272]	@ zero_extendqisi2
 2649 090c 94F80F11 		ldrb	r1, [r4, #271]	@ zero_extendqisi2
 2650 0910 4218     		adds	r2, r0, r1
 2651              	.LBE498:
 2652              	.LBB499:
 2653 0912 7948     		ldr	r0, .L112
 2654 0914 2946     		mov	r1, r5
 2655              	.LBE499:
 2656              	.LBB500:
 2657 0916 84F81021 		strb	r2, [r4, #272]
 2658              	.LVL228:
 2659              	.LBE500:
 2660              	.LBB501:
 2661 091a FFF7FEFF 		bl	uart_transmit
 2662              	.LVL229:
 2663 091e 94F81001 		ldrb	r0, [r4, #272]	@ zero_extendqisi2
 2664 0922 94F80F31 		ldrb	r3, [r4, #271]	@ zero_extendqisi2
 2665 0926 C118     		adds	r1, r0, r3
 2666 0928 84F81011 		strb	r1, [r4, #272]
 2667              	.LVL230:
 2668              	.LBE501:
 2669              	.LBB502:
 2670 092c 7248     		ldr	r0, .L112
 2671 092e 2946     		mov	r1, r5
 2672 0930 FFF7FEFF 		bl	uart_transmit
 2673              	.LVL231:
 2674 0934 94F81021 		ldrb	r2, [r4, #272]	@ zero_extendqisi2
 2675 0938 94F80F01 		ldrb	r0, [r4, #271]	@ zero_extendqisi2
 2676              	.LBE502:
 2677              	.LBB503:
 2678 093c 2946     		mov	r1, r5
 2679              	.LBE503:
 2680              	.LBB504:
 2681 093e 1318     		adds	r3, r2, r0
 2682              	.LBE504:
 2683              	.LBB505:
 2684 0940 6D48     		ldr	r0, .L112
 2685              	.LBE505:
 2686              	.LBB506:
 2687 0942 84F81031 		strb	r3, [r4, #272]
 2688              	.LVL232:
 2689              	.LBE506:
 2690              	.LBB507:
 2691 0946 FFF7FEFF 		bl	uart_transmit
 2692              	.LVL233:
 2693 094a 94F81011 		ldrb	r1, [r4, #272]	@ zero_extendqisi2
 2694 094e 94F80F21 		ldrb	r2, [r4, #271]	@ zero_extendqisi2
 2695 0952 8818     		adds	r0, r1, r2
 2696 0954 84F81001 		strb	r0, [r4, #272]
 2697              	.LVL234:
 2698              	.LBE507:
 2699              	.LBB508:
 2700 0958 2946     		mov	r1, r5
 2701 095a 6748     		ldr	r0, .L112
 2702 095c FFF7FEFF 		bl	uart_transmit
 2703              	.LVL235:
 2704 0960 94F81011 		ldrb	r1, [r4, #272]	@ zero_extendqisi2
 2705 0964 94F80F31 		ldrb	r3, [r4, #271]	@ zero_extendqisi2
 2706              	.LBE508:
 2707              	.LBB509:
 2708 0968 6348     		ldr	r0, .L112
 2709              	.LBE509:
 2710              	.LBB510:
 2711 096a CA18     		adds	r2, r1, r3
 2712              	.LBE510:
 2713              	.LBB511:
 2714 096c 2946     		mov	r1, r5
 2715              	.LBE511:
 2716              	.LBB512:
 2717 096e 84F81021 		strb	r2, [r4, #272]
 2718              	.LVL236:
 2719              	.LBE512:
 2720              	.LBB513:
 2721 0972 FFF7FEFF 		bl	uart_transmit
 2722              	.LVL237:
 2723 0976 94F81001 		ldrb	r0, [r4, #272]	@ zero_extendqisi2
 2724 097a 94F80F11 		ldrb	r1, [r4, #271]	@ zero_extendqisi2
 2725 097e 4318     		adds	r3, r0, r1
 2726              	.LBE513:
 2727              	.LBB514:
 2728 0980 5D48     		ldr	r0, .L112
 2729 0982 2946     		mov	r1, r5
 2730              	.LBE514:
 2731              	.LBB515:
 2732 0984 84F81031 		strb	r3, [r4, #272]
 2733              	.LVL238:
 2734              	.LBE515:
 2735              	.LBB516:
 2736 0988 FFF7FEFF 		bl	uart_transmit
 2737              	.LVL239:
 2738 098c 94F81021 		ldrb	r2, [r4, #272]	@ zero_extendqisi2
 2739 0990 94F80F01 		ldrb	r0, [r4, #271]	@ zero_extendqisi2
 2740 0994 1118     		adds	r1, r2, r0
 2741 0996 84F81011 		strb	r1, [r4, #272]
 2742              	.LVL240:
 2743              	.LBE516:
 2744              	.LBB517:
 2745 099a 5748     		ldr	r0, .L112
 2746 099c 2946     		mov	r1, r5
 2747 099e FFF7FEFF 		bl	uart_transmit
 2748              	.LVL241:
 2749 09a2 94F81021 		ldrb	r2, [r4, #272]	@ zero_extendqisi2
 2750 09a6 94F80F31 		ldrb	r3, [r4, #271]	@ zero_extendqisi2
 2751              	.LBE517:
 2752              	.LBB518:
 2753 09aa 2946     		mov	r1, r5
 2754              	.LBE518:
 2755              	.LBB519:
 2756 09ac D018     		adds	r0, r2, r3
 2757 09ae 84F81001 		strb	r0, [r4, #272]
 2758              	.LVL242:
 2759              	.LBE519:
 2760              	.LBB520:
 2761 09b2 5148     		ldr	r0, .L112
 2762 09b4 FFF7FEFF 		bl	uart_transmit
 2763              	.LVL243:
 2764 09b8 94F81011 		ldrb	r1, [r4, #272]	@ zero_extendqisi2
 2765 09bc 94F80F21 		ldrb	r2, [r4, #271]	@ zero_extendqisi2
 2766              	.LBE520:
 2767              	.LBB521:
 2768 09c0 4D48     		ldr	r0, .L112
 2769              	.LBE521:
 2770              	.LBB522:
 2771 09c2 8B18     		adds	r3, r1, r2
 2772              	.LBE522:
 2773              	.LBB523:
 2774 09c4 2946     		mov	r1, r5
 2775              	.LBE523:
 2776              	.LBB524:
 2777 09c6 84F81031 		strb	r3, [r4, #272]
 2778              	.LVL244:
 2779              	.LBE524:
 2780              	.LBB525:
 2781 09ca FFF7FEFF 		bl	uart_transmit
 2782              	.LVL245:
 2783 09ce 94F81001 		ldrb	r0, [r4, #272]	@ zero_extendqisi2
 2784 09d2 94F80F11 		ldrb	r1, [r4, #271]	@ zero_extendqisi2
 2785 09d6 4218     		adds	r2, r0, r1
 2786              	.LBE525:
 2787              	.LBB526:
 2788 09d8 4748     		ldr	r0, .L112
 2789 09da 2946     		mov	r1, r5
 2790              	.LBE526:
 2791              	.LBB527:
 2792 09dc 84F81021 		strb	r2, [r4, #272]
 2793              	.LVL246:
 2794              	.LBE527:
 2795              	.LBB528:
 2796 09e0 FFF7FEFF 		bl	uart_transmit
 2797              	.LVL247:
 2798 09e4 94F81001 		ldrb	r0, [r4, #272]	@ zero_extendqisi2
 2799 09e8 94F80F31 		ldrb	r3, [r4, #271]	@ zero_extendqisi2
 2800 09ec C118     		adds	r1, r0, r3
 2801 09ee 84F81011 		strb	r1, [r4, #272]
 2802              	.LVL248:
 2803              	.LBE528:
 2804              	.LBB529:
 2805 09f2 4148     		ldr	r0, .L112
 2806 09f4 2946     		mov	r1, r5
 2807 09f6 FFF7FEFF 		bl	uart_transmit
 2808              	.LVL249:
 2809 09fa 94F81021 		ldrb	r2, [r4, #272]	@ zero_extendqisi2
 2810 09fe 94F80F01 		ldrb	r0, [r4, #271]	@ zero_extendqisi2
 2811              	.LBE529:
 2812              	.LBB530:
 2813 0a02 2946     		mov	r1, r5
 2814              	.LBE530:
 2815              	.LBB531:
 2816 0a04 1318     		adds	r3, r2, r0
 2817              	.LBE531:
 2818              	.LBB532:
 2819 0a06 3C48     		ldr	r0, .L112
 2820              	.LBE532:
 2821              	.LBB533:
 2822 0a08 84F81031 		strb	r3, [r4, #272]
 2823              	.LVL250:
 2824              	.LBE533:
 2825              	.LBB534:
 2826 0a0c FFF7FEFF 		bl	uart_transmit
 2827              	.LVL251:
 2828 0a10 94F81011 		ldrb	r1, [r4, #272]	@ zero_extendqisi2
 2829 0a14 94F80F21 		ldrb	r2, [r4, #271]	@ zero_extendqisi2
 2830 0a18 8818     		adds	r0, r1, r2
 2831 0a1a 84F81001 		strb	r0, [r4, #272]
 2832              	.LVL252:
 2833              	.LBE534:
 2834              	.LBB535:
 2835 0a1e 2946     		mov	r1, r5
 2836 0a20 3548     		ldr	r0, .L112
 2837 0a22 FFF7FEFF 		bl	uart_transmit
 2838              	.LVL253:
 2839 0a26 94F81011 		ldrb	r1, [r4, #272]	@ zero_extendqisi2
 2840 0a2a 94F80F31 		ldrb	r3, [r4, #271]	@ zero_extendqisi2
 2841              	.LBE535:
 2842              	.LBB536:
 2843 0a2e 3248     		ldr	r0, .L112
 2844              	.LBE536:
 2845              	.LBB537:
 2846 0a30 CA18     		adds	r2, r1, r3
 2847              	.LBE537:
 2848              	.LBB538:
 2849 0a32 2946     		mov	r1, r5
 2850              	.LBE538:
 2851              	.LBB539:
 2852 0a34 84F81021 		strb	r2, [r4, #272]
 2853              	.LVL254:
 2854              	.LBE539:
 2855              	.LBB540:
 2856 0a38 FFF7FEFF 		bl	uart_transmit
 2857              	.LVL255:
 2858 0a3c 94F81001 		ldrb	r0, [r4, #272]	@ zero_extendqisi2
 2859 0a40 94F80F11 		ldrb	r1, [r4, #271]	@ zero_extendqisi2
 2860 0a44 4318     		adds	r3, r0, r1
 2861              	.LBE540:
 2862              	.LBB541:
 2863 0a46 2C48     		ldr	r0, .L112
 2864 0a48 2946     		mov	r1, r5
 2865              	.LBE541:
 2866              	.LBB542:
 2867 0a4a 84F81031 		strb	r3, [r4, #272]
 2868              	.LVL256:
 2869              	.LBE542:
 2870              	.LBB543:
 2871 0a4e FFF7FEFF 		bl	uart_transmit
 2872              	.LVL257:
 2873 0a52 94F81021 		ldrb	r2, [r4, #272]	@ zero_extendqisi2
 2874 0a56 94F80F01 		ldrb	r0, [r4, #271]	@ zero_extendqisi2
 2875 0a5a 1118     		adds	r1, r2, r0
 2876 0a5c 84F81011 		strb	r1, [r4, #272]
 2877              	.LVL258:
 2878              	.LBE543:
 2879              	.LBB544:
 2880 0a60 2548     		ldr	r0, .L112
 2881 0a62 2946     		mov	r1, r5
 2882 0a64 FFF7FEFF 		bl	uart_transmit
 2883              	.LVL259:
 2884 0a68 94F81021 		ldrb	r2, [r4, #272]	@ zero_extendqisi2
 2885 0a6c 94F80F31 		ldrb	r3, [r4, #271]	@ zero_extendqisi2
 2886              	.LBE544:
 2887              	.LBB545:
 2888 0a70 2946     		mov	r1, r5
 2889              	.LBE545:
 2890              	.LBB546:
 2891 0a72 D018     		adds	r0, r2, r3
 2892 0a74 84F81001 		strb	r0, [r4, #272]
 2893              	.LVL260:
 2894              	.LBE546:
 2895              	.LBB547:
 2896 0a78 1F48     		ldr	r0, .L112
 2897 0a7a FFF7FEFF 		bl	uart_transmit
 2898              	.LVL261:
 2899 0a7e 94F81011 		ldrb	r1, [r4, #272]	@ zero_extendqisi2
 2900 0a82 94F80F21 		ldrb	r2, [r4, #271]	@ zero_extendqisi2
 2901              	.LBE547:
 2902              	.LBB548:
 2903 0a86 1C48     		ldr	r0, .L112
 2904              	.LBE548:
 2905              	.LBB549:
 2906 0a88 8B18     		adds	r3, r1, r2
 2907              	.LBE549:
 2908              	.LBB550:
 2909 0a8a 2946     		mov	r1, r5
 2910              	.LBE550:
 2911              	.LBB551:
 2912 0a8c 84F81031 		strb	r3, [r4, #272]
 2913              	.LVL262:
 2914              	.LBE551:
 2915              	.LBB552:
 2916 0a90 FFF7FEFF 		bl	uart_transmit
 2917              	.LVL263:
 2918 0a94 94F81001 		ldrb	r0, [r4, #272]	@ zero_extendqisi2
 2919 0a98 94F80F11 		ldrb	r1, [r4, #271]	@ zero_extendqisi2
 2920 0a9c 4218     		adds	r2, r0, r1
 2921              	.LBE552:
 2922              	.LBB553:
 2923 0a9e 1648     		ldr	r0, .L112
 2924 0aa0 2946     		mov	r1, r5
 2925              	.LBE553:
 2926              	.LBB554:
 2927 0aa2 84F81021 		strb	r2, [r4, #272]
 2928              	.LVL264:
 2929              	.LBE554:
 2930              	.LBB555:
 2931 0aa6 FFF7FEFF 		bl	uart_transmit
 2932              	.LVL265:
 2933 0aaa 94F81001 		ldrb	r0, [r4, #272]	@ zero_extendqisi2
 2934 0aae 94F80F31 		ldrb	r3, [r4, #271]	@ zero_extendqisi2
 2935 0ab2 C118     		adds	r1, r0, r3
 2936 0ab4 84F81011 		strb	r1, [r4, #272]
 2937              	.LVL266:
 2938              	.LBE555:
 2939              	.LBB556:
 2940 0ab8 0F48     		ldr	r0, .L112
 2941 0aba 2946     		mov	r1, r5
 2942 0abc FFF7FEFF 		bl	uart_transmit
 2943              	.LVL267:
 2944 0ac0 94F81021 		ldrb	r2, [r4, #272]	@ zero_extendqisi2
 2945 0ac4 94F80F01 		ldrb	r0, [r4, #271]	@ zero_extendqisi2
 2946              	.LBE556:
 2947              	.LBB557:
 2948 0ac8 2946     		mov	r1, r5
 2949              	.LBE557:
 2950              	.LBB558:
 2951 0aca 1318     		adds	r3, r2, r0
 2952              	.LBE558:
 2953              	.LBB559:
 2954 0acc 0A48     		ldr	r0, .L112
 2955              	.LBE559:
 2956              	.LBB560:
 2957 0ace 84F81031 		strb	r3, [r4, #272]
 2958              	.LVL268:
 2959              	.LBE560:
 2960              	.LBB561:
 2961 0ad2 FFF7FEFF 		bl	uart_transmit
 2962              	.LVL269:
 2963 0ad6 94F81021 		ldrb	r2, [r4, #272]	@ zero_extendqisi2
 2964 0ada 94F80F11 		ldrb	r1, [r4, #271]	@ zero_extendqisi2
 2965 0ade 82E0     		b	.L103
 2966              	.LVL270:
 2967              	.L81:
 2968              	.LBE561:
 2969              	.LBE452:
 2970              	.LBE368:
 2971              	.LBE367:
 376:./modules/gps/gps_ubx_ucenter.c ****     gps_ubx_ucenter_config_nav();
 377:./modules/gps/gps_ubx_ucenter.c ****     break;
 378:./modules/gps/gps_ubx_ucenter.c ****   case 7:
 379:./modules/gps/gps_ubx_ucenter.c ****     gps_ubx_ucenter_enable_msg(UBX_NAV_ID, UBX_NAV_POSLLH_ID,1);
 2972              		.loc 1 379 0
 2973 0ae0 0220     		movs	r0, #2
 2974 0ae2 00E0     		b	.L100
 2975              	.L82:
 380:./modules/gps/gps_ubx_ucenter.c ****     break;
 381:./modules/gps/gps_ubx_ucenter.c ****   case 8:
 382:./modules/gps/gps_ubx_ucenter.c ****     gps_ubx_ucenter_enable_msg(UBX_NAV_ID, UBX_NAV_VELNED_ID, 1);
 2976              		.loc 1 382 0
 2977 0ae4 1220     		movs	r0, #18
 2978              	.L100:
 2979 0ae6 0121     		movs	r1, #1
 2980 0ae8 0AE0     		b	.L98
 2981              	.L83:
 383:./modules/gps/gps_ubx_ucenter.c ****     break;
 384:./modules/gps/gps_ubx_ucenter.c ****   case 9:
 385:./modules/gps/gps_ubx_ucenter.c ****     gps_ubx_ucenter_enable_msg(UBX_NAV_ID, UBX_NAV_STATUS_ID, 1);
 2982              		.loc 1 385 0
 2983 0aea 0320     		movs	r0, #3
 2984 0aec FBE7     		b	.L100
 2985              	.L84:
 386:./modules/gps/gps_ubx_ucenter.c ****     break;
 387:./modules/gps/gps_ubx_ucenter.c ****   case 10:
 388:./modules/gps/gps_ubx_ucenter.c ****     gps_ubx_ucenter_enable_msg(UBX_NAV_ID, UBX_NAV_SVINFO_ID, 4);
 2986              		.loc 1 388 0
 2987 0aee 3020     		movs	r0, #48
 2988 0af0 0421     		movs	r1, #4
 2989 0af2 05E0     		b	.L98
 2990              	.L85:
 389:./modules/gps/gps_ubx_ucenter.c ****     break;
 390:./modules/gps/gps_ubx_ucenter.c ****   case 11:
 391:./modules/gps/gps_ubx_ucenter.c **** #if defined FIRMWARE && FIRMWARE == ROTORCRAFT
 392:./modules/gps/gps_ubx_ucenter.c ****     gps_ubx_ucenter_enable_msg(UBX_NAV_ID, UBX_NAV_SOL_ID, 1);
 2991              		.loc 1 392 0
 2992 0af4 0620     		movs	r0, #6
 2993 0af6 F6E7     		b	.L100
 2994              	.L113:
 2995              		.align	2
 2996              	.L112:
 2997 0af8 00000000 		.word	uart3
 2998              	.L86:
 393:./modules/gps/gps_ubx_ucenter.c **** #else
 394:./modules/gps/gps_ubx_ucenter.c ****     gps_ubx_ucenter_enable_msg(UBX_NAV_ID, UBX_NAV_SOL_ID, 8);
 395:./modules/gps/gps_ubx_ucenter.c **** #endif
 396:./modules/gps/gps_ubx_ucenter.c ****     break;
 397:./modules/gps/gps_ubx_ucenter.c ****   case 12:
 398:./modules/gps/gps_ubx_ucenter.c ****     // Disable UTM on old Lea4P
 399:./modules/gps/gps_ubx_ucenter.c ****     gps_ubx_ucenter_enable_msg(UBX_NAV_ID, UBX_NAV_POSUTM_ID, 0);
 2999              		.loc 1 399 0
 3000 0afc 0820     		movs	r0, #8
 3001 0afe 0021     		movs	r1, #0
 3002              	.L98:
 3003 0b00 FFF7FEFF 		bl	gps_ubx_ucenter_enable_msg.constprop.0
 3004              	.LVL271:
 3005 0b04 D7E1     		b	.L77
 3006              	.LVL272:
 3007              	.L87:
 3008              	.LBB562:
 3009              	.LBB563:
 3010              	.LBB564:
 310:./modules/gps/gps_ubx_ucenter.c ****   UbxSend_CFG_SBAS(GPS_SBAS_ENABLED, GPS_SBAS_RANGING | GPS_SBAS_CORRECTIONS | GPS_SBAS_INTEGRITY, 
 3011              		.loc 1 310 0
 3012 0b06 8A48     		ldr	r0, .L114
 3013 0b08 B521     		movs	r1, #181
 3014 0b0a 8A4C     		ldr	r4, .L114+4
 3015 0b0c FFF7FEFF 		bl	uart_transmit
 3016              	.LVL273:
 3017 0b10 8748     		ldr	r0, .L114
 3018 0b12 6221     		movs	r1, #98
 3019 0b14 FFF7FEFF 		bl	uart_transmit
 3020              	.LVL274:
 3021 0b18 0025     		movs	r5, #0
 3022              	.LBB565:
 3023 0b1a 8548     		ldr	r0, .L114
 3024 0b1c 0621     		movs	r1, #6
 3025              	.LBE565:
 3026 0b1e 84F81051 		strb	r5, [r4, #272]
 3027 0b22 84F80F51 		strb	r5, [r4, #271]
 3028              	.LVL275:
 3029              	.LBB566:
 3030 0b26 FFF7FEFF 		bl	uart_transmit
 3031              	.LVL276:
 3032 0b2a 94F80F31 		ldrb	r3, [r4, #271]	@ zero_extendqisi2
 3033 0b2e 94F81011 		ldrb	r1, [r4, #272]	@ zero_extendqisi2
 3034 0b32 9A1D     		adds	r2, r3, #6
 3035 0b34 D0B2     		uxtb	r0, r2
 3036 0b36 4318     		adds	r3, r0, r1
 3037 0b38 84F80F01 		strb	r0, [r4, #271]
 3038              	.LBE566:
 3039              	.LBB567:
 3040 0b3c 1621     		movs	r1, #22
 3041 0b3e 7C48     		ldr	r0, .L114
 3042              	.LBE567:
 3043              	.LBB568:
 3044 0b40 84F81031 		strb	r3, [r4, #272]
 3045              	.LVL277:
 3046              	.LBE568:
 3047              	.LBB569:
 3048 0b44 FFF7FEFF 		bl	uart_transmit
 3049              	.LVL278:
 3050 0b48 94F80F21 		ldrb	r2, [r4, #271]	@ zero_extendqisi2
 3051 0b4c 94F81011 		ldrb	r1, [r4, #272]	@ zero_extendqisi2
 3052 0b50 1632     		adds	r2, r2, #22
 3053 0b52 D0B2     		uxtb	r0, r2
 3054 0b54 4318     		adds	r3, r0, r1
 3055 0b56 84F80F01 		strb	r0, [r4, #271]
 3056              	.LBE569:
 3057              	.LBB570:
 3058              	.LBB571:
 3059 0b5a 0821     		movs	r1, #8
 3060 0b5c 7448     		ldr	r0, .L114
 3061              	.LBE571:
 3062              	.LBE570:
 3063              	.LBB576:
 3064 0b5e 84F81031 		strb	r3, [r4, #272]
 3065              	.LVL279:
 3066              	.LBE576:
 3067              	.LBB577:
 3068              	.LBB572:
 3069 0b62 FFF7FEFF 		bl	uart_transmit
 3070              	.LVL280:
 3071 0b66 94F80F21 		ldrb	r2, [r4, #271]	@ zero_extendqisi2
 3072 0b6a 94F81011 		ldrb	r1, [r4, #272]	@ zero_extendqisi2
 3073 0b6e 0832     		adds	r2, r2, #8
 3074 0b70 D0B2     		uxtb	r0, r2
 3075 0b72 4318     		adds	r3, r0, r1
 3076 0b74 84F80F01 		strb	r0, [r4, #271]
 3077              	.LBE572:
 3078              	.LBB573:
 3079 0b78 2946     		mov	r1, r5
 3080 0b7a 6D48     		ldr	r0, .L114
 3081              	.LBE573:
 3082              	.LBB574:
 3083 0b7c 84F81031 		strb	r3, [r4, #272]
 3084              	.LVL281:
 3085              	.LBE574:
 3086              	.LBB575:
 3087 0b80 FFF7FEFF 		bl	uart_transmit
 3088              	.LVL282:
 3089 0b84 94F81021 		ldrb	r2, [r4, #272]	@ zero_extendqisi2
 3090 0b88 94F80F01 		ldrb	r0, [r4, #271]	@ zero_extendqisi2
 3091 0b8c 1118     		adds	r1, r2, r0
 3092 0b8e 84F81011 		strb	r1, [r4, #272]
 3093              	.LVL283:
 3094              	.LBE575:
 3095              	.LBE577:
 3096              	.LBB578:
 3097 0b92 6748     		ldr	r0, .L114
 3098 0b94 0121     		movs	r1, #1
 3099 0b96 FFF7FEFF 		bl	uart_transmit
 3100              	.LVL284:
 3101 0b9a 94F80F31 		ldrb	r3, [r4, #271]	@ zero_extendqisi2
 3102 0b9e 94F81011 		ldrb	r1, [r4, #272]	@ zero_extendqisi2
 3103 0ba2 5A1C     		adds	r2, r3, #1
 3104 0ba4 D0B2     		uxtb	r0, r2
 3105 0ba6 4318     		adds	r3, r0, r1
 3106 0ba8 84F80F01 		strb	r0, [r4, #271]
 3107              	.LBE578:
 3108              	.LBB579:
 3109 0bac 0721     		movs	r1, #7
 3110 0bae 6048     		ldr	r0, .L114
 3111              	.LBE579:
 3112              	.LBB580:
 3113 0bb0 84F81031 		strb	r3, [r4, #272]
 3114              	.LVL285:
 3115              	.LBE580:
 3116              	.LBB581:
 3117 0bb4 FFF7FEFF 		bl	uart_transmit
 3118              	.LVL286:
 3119 0bb8 94F80F21 		ldrb	r2, [r4, #271]	@ zero_extendqisi2
 3120 0bbc 94F81031 		ldrb	r3, [r4, #272]	@ zero_extendqisi2
 3121 0bc0 D01D     		adds	r0, r2, #7
 3122 0bc2 C1B2     		uxtb	r1, r0
 3123 0bc4 84F80F11 		strb	r1, [r4, #271]
 3124              	.LVL287:
 3125              	.L102:
 3126 0bc8 C918     		adds	r1, r1, r3
 3127 0bca 84F81011 		strb	r1, [r4, #272]
 3128              	.LVL288:
 3129              	.LBE581:
 3130              	.LBB582:
 3131 0bce 5848     		ldr	r0, .L114
 3132 0bd0 0121     		movs	r1, #1
 3133 0bd2 FFF7FEFF 		bl	uart_transmit
 3134              	.LVL289:
 3135 0bd6 94F80F01 		ldrb	r0, [r4, #271]	@ zero_extendqisi2
 3136 0bda 94F81021 		ldrb	r2, [r4, #272]	@ zero_extendqisi2
 3137 0bde 431C     		adds	r3, r0, #1
 3138 0be0 D9B2     		uxtb	r1, r3
 3139 0be2 84F80F11 		strb	r1, [r4, #271]
 3140              	.LVL290:
 3141              	.L103:
 3142 0be6 8818     		adds	r0, r1, r2
 3143 0be8 84F81001 		strb	r0, [r4, #272]
 3144              	.LVL291:
 3145              	.LBE582:
 3146              	.LBB583:
 3147 0bec 2946     		mov	r1, r5
 3148 0bee 5048     		ldr	r0, .L114
 3149 0bf0 FFF7FEFF 		bl	uart_transmit
 3150              	.LVL292:
 3151 0bf4 94F81021 		ldrb	r2, [r4, #272]	@ zero_extendqisi2
 3152 0bf8 94F80F11 		ldrb	r1, [r4, #271]	@ zero_extendqisi2
 3153 0bfc 47E1     		b	.L101
 3154              	.LVL293:
 3155              	.L88:
 3156              	.LBE583:
 3157              	.LBE564:
 3158              	.LBE563:
 3159              	.LBE562:
 3160              	.LBB584:
 400:./modules/gps/gps_ubx_ucenter.c ****     break;
 401:./modules/gps/gps_ubx_ucenter.c ****   case 13:
 402:./modules/gps/gps_ubx_ucenter.c ****     gps_ubx_ucenter_config_sbas();
 403:./modules/gps/gps_ubx_ucenter.c ****     break;
 404:./modules/gps/gps_ubx_ucenter.c ****   case 14:
 405:./modules/gps/gps_ubx_ucenter.c ****     UbxSend_CFG_RATE(0x00FA, 0x0001, 0x0000);
 3161              		.loc 1 405 0
 3162 0bfe 4C48     		ldr	r0, .L114
 3163 0c00 B521     		movs	r1, #181
 3164 0c02 4C4C     		ldr	r4, .L114+4
 3165 0c04 FFF7FEFF 		bl	uart_transmit
 3166              	.LVL294:
 3167 0c08 4948     		ldr	r0, .L114
 3168 0c0a 6221     		movs	r1, #98
 3169 0c0c FFF7FEFF 		bl	uart_transmit
 3170              	.LVL295:
 3171 0c10 0025     		movs	r5, #0
 3172              	.LBB585:
 3173 0c12 4748     		ldr	r0, .L114
 3174 0c14 0621     		movs	r1, #6
 3175              	.LBE585:
 3176 0c16 84F81051 		strb	r5, [r4, #272]
 3177 0c1a 84F80F51 		strb	r5, [r4, #271]
 3178              	.LVL296:
 3179              	.LBB586:
 3180 0c1e FFF7FEFF 		bl	uart_transmit
 3181              	.LVL297:
 3182 0c22 94F80F31 		ldrb	r3, [r4, #271]	@ zero_extendqisi2
 3183 0c26 94F81021 		ldrb	r2, [r4, #272]	@ zero_extendqisi2
 3184 0c2a 981D     		adds	r0, r3, #6
 3185 0c2c C1B2     		uxtb	r1, r0
 3186 0c2e 8B18     		adds	r3, r1, r2
 3187 0c30 84F80F11 		strb	r1, [r4, #271]
 3188              	.LBE586:
 3189              	.LBB587:
 3190 0c34 3E48     		ldr	r0, .L114
 3191 0c36 0821     		movs	r1, #8
 3192              	.LBE587:
 3193              	.LBB588:
 3194 0c38 84F81031 		strb	r3, [r4, #272]
 3195              	.LVL298:
 3196              	.LBE588:
 3197              	.LBB589:
 3198 0c3c FFF7FEFF 		bl	uart_transmit
 3199              	.LVL299:
 3200 0c40 94F80F01 		ldrb	r0, [r4, #271]	@ zero_extendqisi2
 3201 0c44 94F81021 		ldrb	r2, [r4, #272]	@ zero_extendqisi2
 3202 0c48 0830     		adds	r0, r0, #8
 3203 0c4a C1B2     		uxtb	r1, r0
 3204 0c4c 8B18     		adds	r3, r1, r2
 3205 0c4e 84F80F11 		strb	r1, [r4, #271]
 3206              	.LBE589:
 3207              	.LBB590:
 3208              	.LBB591:
 3209 0c52 3748     		ldr	r0, .L114
 3210 0c54 0621     		movs	r1, #6
 3211              	.LBE591:
 3212              	.LBE590:
 3213              	.LBB598:
 3214 0c56 84F81031 		strb	r3, [r4, #272]
 3215              	.LVL300:
 3216              	.LBE598:
 3217              	.LBB599:
 3218              	.LBB592:
 3219 0c5a FFF7FEFF 		bl	uart_transmit
 3220              	.LVL301:
 3221 0c5e 94F80F01 		ldrb	r0, [r4, #271]	@ zero_extendqisi2
 3222 0c62 94F81021 		ldrb	r2, [r4, #272]	@ zero_extendqisi2
 3223 0c66 811D     		adds	r1, r0, #6
 3224 0c68 CBB2     		uxtb	r3, r1
 3225 0c6a 9818     		adds	r0, r3, r2
 3226 0c6c 84F81001 		strb	r0, [r4, #272]
 3227              	.LVL302:
 3228              	.LBE592:
 3229              	.LBB593:
 3230 0c70 2946     		mov	r1, r5
 3231 0c72 2F48     		ldr	r0, .L114
 3232              	.LBE593:
 3233              	.LBB594:
 3234 0c74 84F80F31 		strb	r3, [r4, #271]
 3235              	.LBE594:
 3236              	.LBB595:
 3237 0c78 FFF7FEFF 		bl	uart_transmit
 3238              	.LVL303:
 3239 0c7c 94F81011 		ldrb	r1, [r4, #272]	@ zero_extendqisi2
 3240 0c80 94F80F31 		ldrb	r3, [r4, #271]	@ zero_extendqisi2
 3241              	.LBE595:
 3242              	.LBE599:
 3243              	.LBB600:
 3244 0c84 2A48     		ldr	r0, .L114
 3245              	.LBE600:
 3246              	.LBB601:
 3247              	.LBB596:
 3248 0c86 CA18     		adds	r2, r1, r3
 3249              	.LBE596:
 3250              	.LBE601:
 3251              	.LBB602:
 3252 0c88 FA21     		movs	r1, #250
 3253              	.LBE602:
 3254              	.LBB603:
 3255              	.LBB597:
 3256 0c8a 84F81021 		strb	r2, [r4, #272]
 3257              	.LVL304:
 3258              	.LBE597:
 3259              	.LBE603:
 3260              	.LBB604:
 3261 0c8e FFF7FEFF 		bl	uart_transmit
 3262              	.LVL305:
 3263 0c92 94F80F01 		ldrb	r0, [r4, #271]	@ zero_extendqisi2
 3264 0c96 94F81021 		ldrb	r2, [r4, #272]	@ zero_extendqisi2
 3265 0c9a 811F     		subs	r1, r0, #6
 3266 0c9c CBB2     		uxtb	r3, r1
 3267 0c9e 9818     		adds	r0, r3, r2
 3268 0ca0 84F81001 		strb	r0, [r4, #272]
 3269              	.LVL306:
 3270              	.LBE604:
 3271              	.LBB605:
 3272 0ca4 2946     		mov	r1, r5
 3273 0ca6 2248     		ldr	r0, .L114
 3274              	.LBE605:
 3275              	.LBB606:
 3276 0ca8 84F80F31 		strb	r3, [r4, #271]
 3277              	.LBE606:
 3278              	.LBB607:
 3279 0cac FFF7FEFF 		bl	uart_transmit
 3280              	.LVL307:
 3281 0cb0 94F81011 		ldrb	r1, [r4, #272]	@ zero_extendqisi2
 3282 0cb4 94F80F31 		ldrb	r3, [r4, #271]	@ zero_extendqisi2
 3283              	.LBE607:
 3284              	.LBB608:
 3285 0cb8 1D48     		ldr	r0, .L114
 3286              	.LBE608:
 3287              	.LBB609:
 3288 0cba CA18     		adds	r2, r1, r3
 3289              	.LBE609:
 3290              	.LBB610:
 3291 0cbc 0121     		movs	r1, #1
 3292              	.LBE610:
 3293              	.LBB611:
 3294 0cbe 84F81021 		strb	r2, [r4, #272]
 3295              	.LVL308:
 3296              	.LBE611:
 3297              	.LBB612:
 3298 0cc2 FFF7FEFF 		bl	uart_transmit
 3299              	.LVL309:
 3300 0cc6 94F80F01 		ldrb	r0, [r4, #271]	@ zero_extendqisi2
 3301 0cca 411C     		adds	r1, r0, #1
 3302              	.LVL310:
 3303              	.L97:
 3304 0ccc CAB2     		uxtb	r2, r1
 3305 0cce 94F81011 		ldrb	r1, [r4, #272]	@ zero_extendqisi2
 3306 0cd2 84F80F21 		strb	r2, [r4, #271]
 3307              	.L95:
 3308 0cd6 5018     		adds	r0, r2, r1
 3309 0cd8 84F81001 		strb	r0, [r4, #272]
 3310              	.LVL311:
 3311              	.LBE612:
 3312              	.LBB613:
 3313 0cdc 2946     		mov	r1, r5
 3314 0cde 1448     		ldr	r0, .L114
 3315 0ce0 FFF7FEFF 		bl	uart_transmit
 3316              	.LVL312:
 3317 0ce4 94F81011 		ldrb	r1, [r4, #272]	@ zero_extendqisi2
 3318 0ce8 94F80F31 		ldrb	r3, [r4, #271]	@ zero_extendqisi2
 3319              	.LVL313:
 3320              	.L96:
 3321 0cec C918     		adds	r1, r1, r3
 3322 0cee 84F81011 		strb	r1, [r4, #272]
 3323              	.LVL314:
 3324              	.LBE613:
 3325              	.LBB614:
 3326 0cf2 0F48     		ldr	r0, .L114
 3327 0cf4 2946     		mov	r1, r5
 3328 0cf6 FFF7FEFF 		bl	uart_transmit
 3329              	.LVL315:
 3330 0cfa 94F81021 		ldrb	r2, [r4, #272]	@ zero_extendqisi2
 3331 0cfe 94F80F31 		ldrb	r3, [r4, #271]	@ zero_extendqisi2
 3332              	.LBE614:
 3333              	.LBB615:
 3334 0d02 2946     		mov	r1, r5
 3335              	.LBE615:
 3336              	.LBB616:
 3337 0d04 D018     		adds	r0, r2, r3
 3338 0d06 84F81001 		strb	r0, [r4, #272]
 3339              	.LVL316:
 3340              	.LBE616:
 3341              	.LBB617:
 3342 0d0a 0948     		ldr	r0, .L114
 3343 0d0c FFF7FEFF 		bl	uart_transmit
 3344              	.LVL317:
 3345 0d10 94F80F11 		ldrb	r1, [r4, #271]	@ zero_extendqisi2
 3346 0d14 94F81021 		ldrb	r2, [r4, #272]	@ zero_extendqisi2
 3347              	.LBE617:
 3348 0d18 0548     		ldr	r0, .L114
 3349              	.LBB618:
 3350 0d1a 8B18     		adds	r3, r1, r2
 3351 0d1c 84F81031 		strb	r3, [r4, #272]
 3352              	.LBE618:
 3353 0d20 FFF7FEFF 		bl	uart_transmit
 3354              	.LVL318:
 3355 0d24 0248     		ldr	r0, .L114
 3356 0d26 94F81011 		ldrb	r1, [r4, #272]	@ zero_extendqisi2
 3357 0d2a FFF7FEFF 		bl	uart_transmit
 3358              	.LVL319:
 3359 0d2e C2E0     		b	.L77
 3360              	.L115:
 3361              		.align	2
 3362              	.L114:
 3363 0d30 00000000 		.word	uart3
 3364 0d34 00000000 		.word	.LANCHOR0
 3365              	.LVL320:
 3366              	.L89:
 3367              	.LBE584:
 3368              	.LBB619:
 406:./modules/gps/gps_ubx_ucenter.c ****     break;
 407:./modules/gps/gps_ubx_ucenter.c ****   case 15:
 408:./modules/gps/gps_ubx_ucenter.c ****     // Try to save on non-ROM devices...
 409:./modules/gps/gps_ubx_ucenter.c ****     UbxSend_CFG_CFG(0x00000000,0xffffffff,0x00000000);
 3369              		.loc 1 409 0
 3370 0d38 6148     		ldr	r0, .L116
 3371 0d3a B521     		movs	r1, #181
 3372 0d3c 614C     		ldr	r4, .L116+4
 3373 0d3e FFF7FEFF 		bl	uart_transmit
 3374              	.LVL321:
 3375 0d42 5F48     		ldr	r0, .L116
 3376 0d44 6221     		movs	r1, #98
 3377 0d46 FFF7FEFF 		bl	uart_transmit
 3378              	.LVL322:
 3379 0d4a 0025     		movs	r5, #0
 3380              	.LBB620:
 3381 0d4c 5C48     		ldr	r0, .L116
 3382 0d4e 0621     		movs	r1, #6
 3383              	.LBE620:
 3384 0d50 84F81051 		strb	r5, [r4, #272]
 3385 0d54 84F80F51 		strb	r5, [r4, #271]
 3386              	.LVL323:
 3387              	.LBB621:
 3388 0d58 FFF7FEFF 		bl	uart_transmit
 3389              	.LVL324:
 3390 0d5c 94F80F21 		ldrb	r2, [r4, #271]	@ zero_extendqisi2
 3391 0d60 94F81031 		ldrb	r3, [r4, #272]	@ zero_extendqisi2
 3392 0d64 901D     		adds	r0, r2, #6
 3393 0d66 C1B2     		uxtb	r1, r0
 3394 0d68 CA18     		adds	r2, r1, r3
 3395 0d6a 84F80F11 		strb	r1, [r4, #271]
 3396              	.LBE621:
 3397              	.LBB622:
 3398 0d6e 5448     		ldr	r0, .L116
 3399 0d70 0921     		movs	r1, #9
 3400              	.LBE622:
 3401              	.LBB623:
 3402 0d72 84F81021 		strb	r2, [r4, #272]
 3403              	.LVL325:
 3404              	.LBE623:
 3405              	.LBB624:
 3406 0d76 FFF7FEFF 		bl	uart_transmit
 3407              	.LVL326:
 3408 0d7a 94F80F01 		ldrb	r0, [r4, #271]	@ zero_extendqisi2
 3409 0d7e 94F81031 		ldrb	r3, [r4, #272]	@ zero_extendqisi2
 3410 0d82 0930     		adds	r0, r0, #9
 3411 0d84 C1B2     		uxtb	r1, r0
 3412 0d86 CA18     		adds	r2, r1, r3
 3413 0d88 84F80F11 		strb	r1, [r4, #271]
 3414              	.LBE624:
 3415              	.LBB625:
 3416              	.LBB626:
 3417 0d8c 4C48     		ldr	r0, .L116
 3418 0d8e 0C21     		movs	r1, #12
 3419              	.LBE626:
 3420              	.LBE625:
 3421              	.LBB632:
 3422 0d90 84F81021 		strb	r2, [r4, #272]
 3423              	.LVL327:
 3424              	.LBE632:
 3425              	.LBB633:
 3426              	.LBB627:
 3427 0d94 FFF7FEFF 		bl	uart_transmit
 3428              	.LVL328:
 3429 0d98 94F80F01 		ldrb	r0, [r4, #271]	@ zero_extendqisi2
 3430 0d9c 94F81031 		ldrb	r3, [r4, #272]	@ zero_extendqisi2
 3431 0da0 0C30     		adds	r0, r0, #12
 3432 0da2 C1B2     		uxtb	r1, r0
 3433 0da4 CA18     		adds	r2, r1, r3
 3434 0da6 84F80F11 		strb	r1, [r4, #271]
 3435              	.LBE627:
 3436              	.LBB628:
 3437 0daa 4548     		ldr	r0, .L116
 3438 0dac 2946     		mov	r1, r5
 3439              	.LBE628:
 3440              	.LBB629:
 3441 0dae 84F81021 		strb	r2, [r4, #272]
 3442              	.LVL329:
 3443              	.LBE629:
 3444              	.LBB630:
 3445 0db2 FFF7FEFF 		bl	uart_transmit
 3446              	.LVL330:
 3447 0db6 94F81001 		ldrb	r0, [r4, #272]	@ zero_extendqisi2
 3448 0dba 94F80F11 		ldrb	r1, [r4, #271]	@ zero_extendqisi2
 3449 0dbe 4318     		adds	r3, r0, r1
 3450              	.LBE630:
 3451              	.LBE633:
 3452              	.LBB634:
 3453 0dc0 3F48     		ldr	r0, .L116
 3454 0dc2 2946     		mov	r1, r5
 3455              	.LBE634:
 3456              	.LBB635:
 3457              	.LBB631:
 3458 0dc4 84F81031 		strb	r3, [r4, #272]
 3459              	.LVL331:
 3460              	.LBE631:
 3461              	.LBE635:
 3462              	.LBB636:
 3463 0dc8 FFF7FEFF 		bl	uart_transmit
 3464              	.LVL332:
 3465 0dcc 94F81021 		ldrb	r2, [r4, #272]	@ zero_extendqisi2
 3466 0dd0 94F80F01 		ldrb	r0, [r4, #271]	@ zero_extendqisi2
 3467 0dd4 1118     		adds	r1, r2, r0
 3468 0dd6 84F81011 		strb	r1, [r4, #272]
 3469              	.LVL333:
 3470              	.LBE636:
 3471              	.LBB637:
 3472 0dda 3948     		ldr	r0, .L116
 3473 0ddc 2946     		mov	r1, r5
 3474 0dde FFF7FEFF 		bl	uart_transmit
 3475              	.LVL334:
 3476 0de2 94F81021 		ldrb	r2, [r4, #272]	@ zero_extendqisi2
 3477 0de6 94F80F31 		ldrb	r3, [r4, #271]	@ zero_extendqisi2
 3478              	.LBE637:
 3479              	.LBB638:
 3480 0dea 2946     		mov	r1, r5
 3481              	.LBE638:
 3482              	.LBB639:
 3483 0dec D018     		adds	r0, r2, r3
 3484 0dee 84F81001 		strb	r0, [r4, #272]
 3485              	.LVL335:
 3486              	.LBE639:
 3487              	.LBB640:
 3488 0df2 3348     		ldr	r0, .L116
 3489 0df4 FFF7FEFF 		bl	uart_transmit
 3490              	.LVL336:
 3491 0df8 94F81011 		ldrb	r1, [r4, #272]	@ zero_extendqisi2
 3492 0dfc 94F80F21 		ldrb	r2, [r4, #271]	@ zero_extendqisi2
 3493              	.LBE640:
 3494              	.LBB641:
 3495 0e00 2F48     		ldr	r0, .L116
 3496              	.LBE641:
 3497              	.LBB642:
 3498 0e02 8B18     		adds	r3, r1, r2
 3499              	.LBE642:
 3500              	.LBB643:
 3501 0e04 2946     		mov	r1, r5
 3502              	.LBE643:
 3503              	.LBB644:
 3504 0e06 84F81031 		strb	r3, [r4, #272]
 3505              	.LVL337:
 3506              	.LBE644:
 3507              	.LBB645:
 3508 0e0a FFF7FEFF 		bl	uart_transmit
 3509              	.LVL338:
 3510 0e0e 94F81001 		ldrb	r0, [r4, #272]	@ zero_extendqisi2
 3511 0e12 94F80F11 		ldrb	r1, [r4, #271]	@ zero_extendqisi2
 3512 0e16 4218     		adds	r2, r0, r1
 3513              	.LBE645:
 3514              	.LBB646:
 3515 0e18 2948     		ldr	r0, .L116
 3516 0e1a FF21     		movs	r1, #255
 3517              	.LBE646:
 3518              	.LBB647:
 3519 0e1c 84F81021 		strb	r2, [r4, #272]
 3520              	.LVL339:
 3521              	.LBE647:
 3522              	.LBB648:
 3523 0e20 FFF7FEFF 		bl	uart_transmit
 3524              	.LVL340:
 3525 0e24 94F80F31 		ldrb	r3, [r4, #271]	@ zero_extendqisi2
 3526 0e28 94F81021 		ldrb	r2, [r4, #272]	@ zero_extendqisi2
 3527 0e2c 581E     		subs	r0, r3, #1
 3528 0e2e C1B2     		uxtb	r1, r0
 3529 0e30 8B18     		adds	r3, r1, r2
 3530 0e32 84F80F11 		strb	r1, [r4, #271]
 3531              	.LBE648:
 3532              	.LBB649:
 3533 0e36 2248     		ldr	r0, .L116
 3534 0e38 FF21     		movs	r1, #255
 3535              	.LBE649:
 3536              	.LBB650:
 3537 0e3a 84F81031 		strb	r3, [r4, #272]
 3538              	.LVL341:
 3539              	.LBE650:
 3540              	.LBB651:
 3541 0e3e FFF7FEFF 		bl	uart_transmit
 3542              	.LVL342:
 3543 0e42 94F80F01 		ldrb	r0, [r4, #271]	@ zero_extendqisi2
 3544 0e46 94F81021 		ldrb	r2, [r4, #272]	@ zero_extendqisi2
 3545 0e4a 411E     		subs	r1, r0, #1
 3546 0e4c CBB2     		uxtb	r3, r1
 3547 0e4e 9818     		adds	r0, r3, r2
 3548 0e50 84F81001 		strb	r0, [r4, #272]
 3549              	.LVL343:
 3550              	.LBE651:
 3551              	.LBB652:
 3552 0e54 FF21     		movs	r1, #255
 3553 0e56 1A48     		ldr	r0, .L116
 3554              	.LBE652:
 3555              	.LBB653:
 3556 0e58 84F80F31 		strb	r3, [r4, #271]
 3557              	.LBE653:
 3558              	.LBB654:
 3559 0e5c FFF7FEFF 		bl	uart_transmit
 3560              	.LVL344:
 3561 0e60 94F80F11 		ldrb	r1, [r4, #271]	@ zero_extendqisi2
 3562 0e64 94F81021 		ldrb	r2, [r4, #272]	@ zero_extendqisi2
 3563 0e68 4B1E     		subs	r3, r1, #1
 3564 0e6a D8B2     		uxtb	r0, r3
 3565 0e6c 8118     		adds	r1, r0, r2
 3566 0e6e 84F80F01 		strb	r0, [r4, #271]
 3567 0e72 84F81011 		strb	r1, [r4, #272]
 3568              	.LVL345:
 3569              	.LBE654:
 3570              	.LBB655:
 3571 0e76 1248     		ldr	r0, .L116
 3572 0e78 FF21     		movs	r1, #255
 3573 0e7a FFF7FEFF 		bl	uart_transmit
 3574              	.LVL346:
 3575 0e7e 94F80F31 		ldrb	r3, [r4, #271]	@ zero_extendqisi2
 3576 0e82 94F81021 		ldrb	r2, [r4, #272]	@ zero_extendqisi2
 3577 0e86 581E     		subs	r0, r3, #1
 3578 0e88 C1B2     		uxtb	r1, r0
 3579 0e8a 84F80F11 		strb	r1, [r4, #271]
 3580              	.LVL347:
 3581              	.L101:
 3582 0e8e 8B18     		adds	r3, r1, r2
 3583              	.LBE655:
 3584              	.LBB656:
 3585 0e90 0B48     		ldr	r0, .L116
 3586 0e92 2946     		mov	r1, r5
 3587              	.LBE656:
 3588              	.LBB657:
 3589 0e94 84F81031 		strb	r3, [r4, #272]
 3590              	.LVL348:
 3591              	.LBE657:
 3592              	.LBB658:
 3593 0e98 FFF7FEFF 		bl	uart_transmit
 3594              	.LVL349:
 3595 0e9c 94F81011 		ldrb	r1, [r4, #272]	@ zero_extendqisi2
 3596 0ea0 94F80F21 		ldrb	r2, [r4, #271]	@ zero_extendqisi2
 3597 0ea4 17E7     		b	.L95
 3598              	.LVL350:
 3599              	.L72:
 3600              	.LBE658:
 3601              	.LBE619:
 3602              	.LBE300:
 3603              	.LBE299:
  94:./modules/gps/gps_ubx_ucenter.c ****         gps_ubx_ucenter.status = GPS_UBX_UCENTER_STATUS_CONFIG;
 3604              		.loc 1 94 0
 3605 0ea6 0849     		ldr	r1, .L116+8
 3606 0ea8 0222     		movs	r2, #2
 3607 0eaa 0A70     		strb	r2, [r1, #0]
  95:./modules/gps/gps_ubx_ucenter.c ****         gps_ubx_ucenter.cnt = 0;
 3608              		.loc 1 95 0
 3609 0eac 0022     		movs	r2, #0
 3610 0eae 05E0     		b	.L99
 3611              	.LVL351:
 3612              	.L90:
 106:./modules/gps/gps_ubx_ucenter.c ****         gps_ubx_ucenter.status = GPS_UBX_UCENTER_STATUS_STOPPED;
 3613              		.loc 1 106 0
 3614 0eb0 2370     		strb	r3, [r4, #0]
 107:./modules/gps/gps_ubx_ucenter.c ****         gps_ubx_ucenter.cnt = 0;
 3615              		.loc 1 107 0
 3616 0eb2 A370     		strb	r3, [r4, #2]
 3617 0eb4 38BD     		pop	{r3, r4, r5, pc}
 3618              	.LVL352:
 3619              	.L77:
 111:./modules/gps/gps_ubx_ucenter.c ****         gps_ubx_ucenter.cnt++;
 3620              		.loc 1 111 0
 3621 0eb6 0449     		ldr	r1, .L116+8
 3622 0eb8 8878     		ldrb	r0, [r1, #2]	@ zero_extendqisi2
 3623 0eba 421C     		adds	r2, r0, #1
 3624              	.L99:
 3625 0ebc 8A70     		strb	r2, [r1, #2]
 3626              	.L60:
 3627 0ebe 38BD     		pop	{r3, r4, r5, pc}
 3628              	.L117:
 3629              		.align	2
 3630              	.L116:
 3631 0ec0 00000000 		.word	uart3
 3632 0ec4 00000000 		.word	.LANCHOR0
 3633 0ec8 00000000 		.word	.LANCHOR1
 3634              		.cfi_endproc
 3635              	.LFE24:
 3637              		.section	.text.gps_ubx_ucenter_event,"ax",%progbits
 3638              		.align	1
 3639              		.global	gps_ubx_ucenter_event
 3640              		.thumb
 3641              		.thumb_func
 3643              	gps_ubx_ucenter_event:
 3644              	.LFB25:
 126:./modules/gps/gps_ubx_ucenter.c **** {
 3645              		.loc 1 126 0
 3646              		.cfi_startproc
 3647              		@ args = 0, pretend = 0, frame = 0
 3648              		@ frame_needed = 0, uses_anonymous_args = 0
 3649 0000 10B5     		push	{r4, lr}
 3650              	.LCFI4:
 3651              		.cfi_def_cfa_offset 8
 3652              		.cfi_offset 4, -8
 3653              		.cfi_offset 14, -4
 128:./modules/gps/gps_ubx_ucenter.c ****   if (gps_ubx_ucenter.status == GPS_UBX_UCENTER_STATUS_STOPPED)
 3654              		.loc 1 128 0
 3655 0002 194A     		ldr	r2, .L126
 3656 0004 1378     		ldrb	r3, [r2, #0]	@ zero_extendqisi2
 3657 0006 73B3     		cbz	r3, .L118
 132:./modules/gps/gps_ubx_ucenter.c ****   if (gps_ubx.msg_class == UBX_ACK_ID) {
 3658              		.loc 1 132 0
 3659 0008 184B     		ldr	r3, .L126+4
 3660 000a 93F80811 		ldrb	r1, [r3, #264]	@ zero_extendqisi2
 3661 000e 0529     		cmp	r1, #5
 3662 0010 06D1     		bne	.L120
 133:./modules/gps/gps_ubx_ucenter.c ****     if (gps_ubx.msg_id == UBX_ACK_ACK_ID) {
 3663              		.loc 1 133 0
 3664 0012 93F80701 		ldrb	r0, [r3, #263]	@ zero_extendqisi2
 3665 0016 0128     		cmp	r0, #1
 138:./modules/gps/gps_ubx_ucenter.c ****       gps_ubx_ucenter.reply = GPS_UBX_UCENTER_REPLY_NACK;
 3666              		.loc 1 138 0
 3667 0018 18BF     		it	ne
 3668 001a 0220     		movne	r0, #2
 3669 001c 5070     		strb	r0, [r2, #1]
 3670 001e 10BD     		pop	{r4, pc}
 3671              	.L120:
 142:./modules/gps/gps_ubx_ucenter.c ****   else if (gps_ubx.msg_class == UBX_MON_ID) {
 3672              		.loc 1 142 0
 3673 0020 0A29     		cmp	r1, #10
 3674 0022 20D1     		bne	.L118
 143:./modules/gps/gps_ubx_ucenter.c ****     if (gps_ubx.msg_id == UBX_MON_VER_ID ) {
 3675              		.loc 1 143 0
 3676 0024 93F80701 		ldrb	r0, [r3, #263]	@ zero_extendqisi2
 3677 0028 0428     		cmp	r0, #4
 3678 002a 1CD1     		bne	.L118
 145:./modules/gps/gps_ubx_ucenter.c ****       gps_ubx_ucenter.sw_ver_h = UBX_MON_VER_c(gps_ubx.msg_buf,0) - '0';
 3679              		.loc 1 145 0
 3680 002c 187A     		ldrb	r0, [r3, #8]	@ zero_extendqisi2
 144:./modules/gps/gps_ubx_ucenter.c ****       gps_ubx_ucenter.reply = GPS_UBX_UCENTER_REPLY_VERSION;
 3681              		.loc 1 144 0
 3682 002e 0324     		movs	r4, #3
 145:./modules/gps/gps_ubx_ucenter.c ****       gps_ubx_ucenter.sw_ver_h = UBX_MON_VER_c(gps_ubx.msg_buf,0) - '0';
 3683              		.loc 1 145 0
 3684 0030 3038     		subs	r0, r0, #48
 3685 0032 1072     		strb	r0, [r2, #8]
 147:./modules/gps/gps_ubx_ucenter.c ****       gps_ubx_ucenter.sw_ver_l += UBX_MON_VER_c(gps_ubx.msg_buf,3) - '0';
 3686              		.loc 1 147 0
 3687 0034 D87A     		ldrb	r0, [r3, #11]	@ zero_extendqisi2
 144:./modules/gps/gps_ubx_ucenter.c ****       gps_ubx_ucenter.reply = GPS_UBX_UCENTER_REPLY_VERSION;
 3688              		.loc 1 144 0
 3689 0036 5470     		strb	r4, [r2, #1]
 146:./modules/gps/gps_ubx_ucenter.c ****       gps_ubx_ucenter.sw_ver_l = 10*(UBX_MON_VER_c(gps_ubx.msg_buf,2) - '0');
 3690              		.loc 1 146 0
 3691 0038 9C7A     		ldrb	r4, [r3, #10]	@ zero_extendqisi2
 147:./modules/gps/gps_ubx_ucenter.c ****       gps_ubx_ucenter.sw_ver_l += UBX_MON_VER_c(gps_ubx.msg_buf,3) - '0';
 3692              		.loc 1 147 0
 3693 003a 1038     		subs	r0, r0, #16
 3694 003c 01FB0400 		mla	r0, r1, r4, r0
 148:./modules/gps/gps_ubx_ucenter.c ****       gps_ubx_ucenter.hw_ver_h = UBX_MON_VER_c(gps_ubx.msg_buf,33) - '0';
 3695              		.loc 1 148 0
 3696 0040 93F82940 		ldrb	r4, [r3, #41]	@ zero_extendqisi2
 147:./modules/gps/gps_ubx_ucenter.c ****       gps_ubx_ucenter.sw_ver_l += UBX_MON_VER_c(gps_ubx.msg_buf,3) - '0';
 3697              		.loc 1 147 0
 3698 0044 5072     		strb	r0, [r2, #9]
 149:./modules/gps/gps_ubx_ucenter.c ****       gps_ubx_ucenter.hw_ver_h += 10*(UBX_MON_VER_c(gps_ubx.msg_buf,32) - '0');
 3699              		.loc 1 149 0
 3700 0046 A4F50470 		sub	r0, r4, #528
 3701 004a 93F82840 		ldrb	r4, [r3, #40]	@ zero_extendqisi2
 3702 004e 01FB0400 		mla	r0, r1, r4, r0
 3703 0052 5081     		strh	r0, [r2, #10]	@ movhi
 150:./modules/gps/gps_ubx_ucenter.c ****       gps_ubx_ucenter.hw_ver_l = UBX_MON_VER_c(gps_ubx.msg_buf,37) - '0';
 3704              		.loc 1 150 0
 3705 0054 93F82D00 		ldrb	r0, [r3, #45]	@ zero_extendqisi2
 151:./modules/gps/gps_ubx_ucenter.c ****       gps_ubx_ucenter.hw_ver_l += 10*(UBX_MON_VER_c(gps_ubx.msg_buf,36) - '0');
 3706              		.loc 1 151 0
 3707 0058 93F82C30 		ldrb	r3, [r3, #44]	@ zero_extendqisi2
 3708 005c A0F50470 		sub	r0, r0, #528
 3709 0060 01FB0301 		mla	r1, r1, r3, r0
 3710 0064 9181     		strh	r1, [r2, #12]	@ movhi
 3711              	.L118:
 3712 0066 10BD     		pop	{r4, pc}
 3713              	.L127:
 3714              		.align	2
 3715              	.L126:
 3716 0068 00000000 		.word	.LANCHOR1
 3717 006c 00000000 		.word	.LANCHOR0
 3718              		.cfi_endproc
 3719              	.LFE25:
 3721              		.section	.text.ubxsend_cfg_rst,"ax",%progbits
 3722              		.align	1
 3723              		.global	ubxsend_cfg_rst
 3724              		.thumb
 3725              		.thumb_func
 3727              	ubxsend_cfg_rst:
 3728              	.LFB39:
 267:subsystems/gps/gps_ubx.c ****   return;
 268:subsystems/gps/gps_ubx.c **** }
 269:subsystems/gps/gps_ubx.c **** 
 270:subsystems/gps/gps_ubx.c **** #ifdef GPS_UBX_UCENTER
 271:subsystems/gps/gps_ubx.c **** #include GPS_UBX_UCENTER
 272:subsystems/gps/gps_ubx.c **** #endif
 273:subsystems/gps/gps_ubx.c **** 
 274:subsystems/gps/gps_ubx.c **** 
 275:subsystems/gps/gps_ubx.c **** void ubxsend_cfg_rst(uint16_t bbr , uint8_t reset_mode) {
 3729              		.loc 2 275 0
 3730              		.cfi_startproc
 3731              		@ args = 0, pretend = 0, frame = 8
 3732              		@ frame_needed = 0, uses_anonymous_args = 0
 3733              	.LVL353:
 3734 0000 2DE9F341 		push	{r0, r1, r4, r5, r6, r7, r8, lr}
 3735              	.LCFI5:
 3736              		.cfi_def_cfa_offset 32
 3737              		.cfi_offset 0, -32
 3738              		.cfi_offset 1, -28
 3739              		.cfi_offset 4, -24
 3740              		.cfi_offset 5, -20
 3741              		.cfi_offset 6, -16
 3742              		.cfi_offset 7, -12
 3743              		.cfi_offset 8, -8
 3744              		.cfi_offset 14, -4
 3745              	.LBB659:
 276:subsystems/gps/gps_ubx.c **** #ifdef GPS_LINK
 277:subsystems/gps/gps_ubx.c ****   UbxSend_CFG_RST(bbr, reset_mode, 0x00);
 3746              		.loc 2 277 0
 3747 0004 4A4D     		ldr	r5, .L129
 3748              	.LBE659:
 275:subsystems/gps/gps_ubx.c **** void ubxsend_cfg_rst(uint16_t bbr , uint8_t reset_mode) {
 3749              		.loc 2 275 0
 3750 0006 8046     		mov	r8, r0
 3751 0008 0F46     		mov	r7, r1
 3752              	.LBB689:
 3753              		.loc 2 277 0
 3754 000a 2846     		mov	r0, r5
 3755              	.LVL354:
 3756 000c B521     		movs	r1, #181
 3757              	.LVL355:
 3758 000e 494C     		ldr	r4, .L129+4
 3759 0010 FFF7FEFF 		bl	uart_transmit
 3760              	.LVL356:
 3761 0014 2846     		mov	r0, r5
 3762 0016 6221     		movs	r1, #98
 3763 0018 FFF7FEFF 		bl	uart_transmit
 3764              	.LVL357:
 3765 001c 0026     		movs	r6, #0
 3766              	.LBB660:
 3767 001e 2846     		mov	r0, r5
 3768 0020 0621     		movs	r1, #6
 3769              	.LBE660:
 3770 0022 84F81061 		strb	r6, [r4, #272]
 3771 0026 84F80F61 		strb	r6, [r4, #271]
 3772              	.LVL358:
 3773              	.LBB661:
 3774 002a FFF7FEFF 		bl	uart_transmit
 3775              	.LVL359:
 3776 002e 94F80F31 		ldrb	r3, [r4, #271]	@ zero_extendqisi2
 3777 0032 94F81021 		ldrb	r2, [r4, #272]	@ zero_extendqisi2
 3778 0036 981D     		adds	r0, r3, #6
 3779 0038 C1B2     		uxtb	r1, r0
 3780 003a 8B18     		adds	r3, r1, r2
 3781 003c 84F80F11 		strb	r1, [r4, #271]
 3782              	.LBE661:
 3783              	.LBB662:
 3784 0040 2846     		mov	r0, r5
 3785 0042 0421     		movs	r1, #4
 3786              	.LBE662:
 3787              	.LBB663:
 3788 0044 84F81031 		strb	r3, [r4, #272]
 3789              	.LVL360:
 3790              	.LBE663:
 3791              	.LBB664:
 3792 0048 FFF7FEFF 		bl	uart_transmit
 3793              	.LVL361:
 3794 004c 94F80F01 		ldrb	r0, [r4, #271]	@ zero_extendqisi2
 3795 0050 94F81021 		ldrb	r2, [r4, #272]	@ zero_extendqisi2
 3796 0054 011D     		adds	r1, r0, #4
 3797 0056 CBB2     		uxtb	r3, r1
 3798 0058 9818     		adds	r0, r3, r2
 3799 005a 84F81001 		strb	r0, [r4, #272]
 3800              	.LVL362:
 3801              	.LBE664:
 3802              	.LBB665:
 3803              	.LBB666:
 3804 005e 0421     		movs	r1, #4
 3805 0060 2846     		mov	r0, r5
 3806              	.LBE666:
 3807              	.LBE665:
 3808              	.LBB671:
 3809 0062 84F80F31 		strb	r3, [r4, #271]
 3810              	.LBE671:
 3811              	.LBB672:
 3812              	.LBB667:
 3813 0066 FFF7FEFF 		bl	uart_transmit
 3814              	.LVL363:
 3815 006a 94F80F11 		ldrb	r1, [r4, #271]	@ zero_extendqisi2
 3816 006e 94F81021 		ldrb	r2, [r4, #272]	@ zero_extendqisi2
 3817 0072 0B1D     		adds	r3, r1, #4
 3818 0074 D8B2     		uxtb	r0, r3
 3819 0076 8118     		adds	r1, r0, r2
 3820 0078 84F80F01 		strb	r0, [r4, #271]
 3821 007c 84F81011 		strb	r1, [r4, #272]
 3822              	.LVL364:
 3823              	.LBE667:
 3824              	.LBB668:
 3825 0080 2846     		mov	r0, r5
 3826 0082 3146     		mov	r1, r6
 3827 0084 FFF7FEFF 		bl	uart_transmit
 3828              	.LVL365:
 3829 0088 94F81001 		ldrb	r0, [r4, #272]	@ zero_extendqisi2
 3830 008c 94F80F31 		ldrb	r3, [r4, #271]	@ zero_extendqisi2
 3831              	.LBE668:
 3832              	.LBE672:
 3833 0090 ADF80680 		strh	r8, [sp, #6]	@ movhi
 3834              	.LVL366:
 3835              	.LBB673:
 3836 0094 5FFA88F8 		uxtb	r8, r8
 3837              	.LVL367:
 3838              	.LBE673:
 3839              	.LBB674:
 3840              	.LBB669:
 3841 0098 C218     		adds	r2, r0, r3
 3842              	.LBE669:
 3843              	.LBE674:
 3844              	.LBB675:
 3845 009a 4146     		mov	r1, r8
 3846 009c 2846     		mov	r0, r5
 3847              	.LBE675:
 3848              	.LBB676:
 3849              	.LBB670:
 3850 009e 84F81021 		strb	r2, [r4, #272]
 3851              	.LBE670:
 3852              	.LBE676:
 3853              	.LBB677:
 3854 00a2 FFF7FEFF 		bl	uart_transmit
 3855              	.LVL368:
 3856 00a6 94F80F11 		ldrb	r1, [r4, #271]	@ zero_extendqisi2
 3857 00aa 94F81031 		ldrb	r3, [r4, #272]	@ zero_extendqisi2
 3858 00ae 08EB0100 		add	r0, r8, r1
 3859              	.LBE677:
 3860              	.LBB678:
 3861 00b2 9DF80780 		ldrb	r8, [sp, #7]	@ zero_extendqisi2
 3862              	.LVL369:
 3863              	.LBE678:
 3864              	.LBB679:
 3865 00b6 C2B2     		uxtb	r2, r0
 3866 00b8 02EB030C 		add	ip, r2, r3
 3867              	.LBE679:
 3868              	.LBB680:
 3869 00bc 2846     		mov	r0, r5
 3870 00be 4146     		mov	r1, r8
 3871              	.LBE680:
 3872              	.LBB681:
 3873 00c0 84F810C1 		strb	ip, [r4, #272]
 3874 00c4 84F80F21 		strb	r2, [r4, #271]
 3875              	.LBE681:
 3876              	.LBB682:
 3877 00c8 FFF7FEFF 		bl	uart_transmit
 3878              	.LVL370:
 3879 00cc 94F80F11 		ldrb	r1, [r4, #271]	@ zero_extendqisi2
 3880 00d0 94F81031 		ldrb	r3, [r4, #272]	@ zero_extendqisi2
 3881 00d4 08EB0100 		add	r0, r8, r1
 3882 00d8 C2B2     		uxtb	r2, r0
 3883 00da 02EB0308 		add	r8, r2, r3
 3884              	.LVL371:
 3885              	.LBE682:
 3886              	.LBB683:
 3887 00de 2846     		mov	r0, r5
 3888 00e0 3946     		mov	r1, r7
 3889              	.LBE683:
 3890              	.LBB684:
 3891 00e2 84F80F21 		strb	r2, [r4, #271]
 3892 00e6 84F81081 		strb	r8, [r4, #272]
 3893              	.LVL372:
 3894              	.LBE684:
 3895              	.LBB685:
 3896 00ea FFF7FEFF 		bl	uart_transmit
 3897              	.LVL373:
 3898 00ee 94F80F11 		ldrb	r1, [r4, #271]	@ zero_extendqisi2
 3899 00f2 94F81021 		ldrb	r2, [r4, #272]	@ zero_extendqisi2
 3900 00f6 7F18     		adds	r7, r7, r1
 3901              	.LVL374:
 3902 00f8 F8B2     		uxtb	r0, r7
 3903 00fa 8718     		adds	r7, r0, r2
 3904 00fc 84F80F01 		strb	r0, [r4, #271]
 3905              	.LBE685:
 3906              	.LBB686:
 3907 0100 3146     		mov	r1, r6
 3908 0102 2846     		mov	r0, r5
 3909              	.LBE686:
 3910              	.LBB687:
 3911 0104 84F81071 		strb	r7, [r4, #272]
 3912              	.LVL375:
 3913              	.LBE687:
 3914              	.LBB688:
 3915 0108 FFF7FEFF 		bl	uart_transmit
 3916              	.LVL376:
 3917 010c 94F80F11 		ldrb	r1, [r4, #271]	@ zero_extendqisi2
 3918 0110 94F81031 		ldrb	r3, [r4, #272]	@ zero_extendqisi2
 3919 0114 C818     		adds	r0, r1, r3
 3920 0116 84F81001 		strb	r0, [r4, #272]
 3921              	.LBE688:
 3922 011a 2846     		mov	r0, r5
 3923 011c FFF7FEFF 		bl	uart_transmit
 3924              	.LVL377:
 3925 0120 94F81011 		ldrb	r1, [r4, #272]	@ zero_extendqisi2
 3926 0124 2846     		mov	r0, r5
 3927              	.LBE689:
 278:subsystems/gps/gps_ubx.c **** #endif /* else less harmful for HITL */
 279:subsystems/gps/gps_ubx.c **** }
 3928              		.loc 2 279 0
 3929 0126 02B0     		add	sp, sp, #8
 3930 0128 BDE8F041 		pop	{r4, r5, r6, r7, r8, lr}
 3931              	.LBB690:
 277:subsystems/gps/gps_ubx.c ****   UbxSend_CFG_RST(bbr, reset_mode, 0x00);
 3932              		.loc 2 277 0
 3933 012c FFF7FEBF 		b	uart_transmit
 3934              	.LVL378:
 3935              	.L130:
 3936              		.align	2
 3937              	.L129:
 3938 0130 00000000 		.word	uart3
 3939 0134 00000000 		.word	.LANCHOR0
 3940              	.LBE690:
 3941              		.cfi_endproc
 3942              	.LFE39:
 3944              		.global	gps_ubx_ucenter
 3945              		.global	gps_ubx
 3946              		.section	.bss.gps_ubx_ucenter,"aw",%nobits
 3947              		.align	1
 3948              		.set	.LANCHOR1,. + 0
 3951              	gps_ubx_ucenter:
 3952 0000 00000000 		.space	32
 3952      00000000 
 3952      00000000 
 3952      00000000 
 3952      00000000 
 3953              		.section	.bss.gps_ubx,"aw",%nobits
 3954              		.align	3
 3955              		.set	.LANCHOR0,. + 0
 3958              	gps_ubx:
 3959 0000 00000000 		.space	280
 3959      00000000 
 3959      00000000 
 3959      00000000 
 3959      00000000 
 3960              		.text
 3961              	.Letext0:
 3962              		.file 3 "/opt/local/bin/../lib/gcc/arm-none-eabi/4.7.3/../../../../arm-none-eabi/include/stdint.h"
 3963              		.file 4 "/Users/tony-yi/git/paparazzi_local/sw/include/std.h"
 3964              		.file 5 "./math/pprz_geodetic_int.h"
 3965              		.file 6 "./mcu_periph/sys_time.h"
 3966              		.file 7 "../ext/libopencm3/include/libopencm3/cm3/common.h"
 3967              		.file 8 "./mcu_periph/uart.h"
 3968              		.file 9 "./subsystems/gps/gps_ubx.h"
 3969              		.file 10 "./subsystems/gps.h"
 3970              		.file 11 "./modules/gps/gps_ubx_ucenter.h"
 3971              		.file 12 "./subsystems/datalink/datalink.h"
 3972              		.file 13 "./subsystems/datalink/xbee.h"
 3973              		.file 14 "./subsystems/datalink/w5100.h"
 3974              		.file 15 "../ext/libopencm3/include/libopencm3/stm32/common/gpio_common_all.h"