   1              		.syntax unified
   2              		.cpu cortex-m3
   3              		.fpu softvfp
   4              		.eabi_attribute 20, 1
   5              		.eabi_attribute 21, 1
   6              		.eabi_attribute 23, 3
   7              		.eabi_attribute 24, 1
   8              		.eabi_attribute 25, 1
   9              		.eabi_attribute 26, 1
  10              		.eabi_attribute 30, 4
  11              		.eabi_attribute 34, 1
  12              		.eabi_attribute 18, 4
  13              		.thumb
  14              		.file	"main.c"
  15              		.text
  16              	.Ltext0:
  17              		.cfi_sections	.debug_frame
  18              		.section	.text.on_baro_dif_event,"ax",%progbits
  19              		.align	1
  20              		.thumb
  21              		.thumb_func
  23              	on_baro_dif_event:
  24              	.LFB148:
  25              		.file 1 "firmwares/rotorcraft/main.c"
   1:firmwares/rotorcraft/main.c **** /*
   2:firmwares/rotorcraft/main.c ****  * Copyright (C) 2008-2010 The Paparazzi Team
   3:firmwares/rotorcraft/main.c ****  *
   4:firmwares/rotorcraft/main.c ****  * This file is part of Paparazzi.
   5:firmwares/rotorcraft/main.c ****  *
   6:firmwares/rotorcraft/main.c ****  * Paparazzi is free software; you can redistribute it and/or modify
   7:firmwares/rotorcraft/main.c ****  * it under the terms of the GNU General Public License as published by
   8:firmwares/rotorcraft/main.c ****  * the Free Software Foundation; either version 2, or (at your option)
   9:firmwares/rotorcraft/main.c ****  * any later version.
  10:firmwares/rotorcraft/main.c ****  *
  11:firmwares/rotorcraft/main.c ****  * Paparazzi is distributed in the hope that it will be useful,
  12:firmwares/rotorcraft/main.c ****  * but WITHOUT ANY WARRANTY; without even the implied warranty of
  13:firmwares/rotorcraft/main.c ****  * MERCHANTABILITY or FITNESS FOR A PARTICULAR PURPOSE.  See the
  14:firmwares/rotorcraft/main.c ****  * GNU General Public License for more details.
  15:firmwares/rotorcraft/main.c ****  *
  16:firmwares/rotorcraft/main.c ****  * You should have received a copy of the GNU General Public License
  17:firmwares/rotorcraft/main.c ****  * along with Paparazzi; see the file COPYING.  If not, write to
  18:firmwares/rotorcraft/main.c ****  * the Free Software Foundation, 59 Temple Place - Suite 330,
  19:firmwares/rotorcraft/main.c ****  * Boston, MA 02111-1307, USA.
  20:firmwares/rotorcraft/main.c ****  *
  21:firmwares/rotorcraft/main.c ****  */
  22:firmwares/rotorcraft/main.c **** 
  23:firmwares/rotorcraft/main.c **** /**
  24:firmwares/rotorcraft/main.c ****  * @file firmwares/rotorcraft/main.c
  25:firmwares/rotorcraft/main.c ****  *
  26:firmwares/rotorcraft/main.c ****  * Rotorcraft main loop.
  27:firmwares/rotorcraft/main.c ****  */
  28:firmwares/rotorcraft/main.c **** 
  29:firmwares/rotorcraft/main.c **** #define MODULES_C
  30:firmwares/rotorcraft/main.c **** 
  31:firmwares/rotorcraft/main.c **** #include <inttypes.h>
  32:firmwares/rotorcraft/main.c **** #include "mcu.h"
  33:firmwares/rotorcraft/main.c **** #include "mcu_periph/sys_time.h"
  34:firmwares/rotorcraft/main.c **** #include "led.h"
  35:firmwares/rotorcraft/main.c **** 
  36:firmwares/rotorcraft/main.c **** #include "subsystems/datalink/downlink.h"
  37:firmwares/rotorcraft/main.c **** #include "firmwares/rotorcraft/telemetry.h"
  38:firmwares/rotorcraft/main.c **** #include "subsystems/datalink/datalink.h"
  39:firmwares/rotorcraft/main.c **** #include "subsystems/settings.h"
  40:firmwares/rotorcraft/main.c **** #include "subsystems/datalink/xbee.h"
  41:firmwares/rotorcraft/main.c **** #if DATALINK == UDP
  42:firmwares/rotorcraft/main.c **** #include "subsystems/datalink/udp.h"
  43:firmwares/rotorcraft/main.c **** #endif
  44:firmwares/rotorcraft/main.c **** 
  45:firmwares/rotorcraft/main.c **** #include "subsystems/commands.h"
  46:firmwares/rotorcraft/main.c **** #include "subsystems/actuators.h"
  47:firmwares/rotorcraft/main.c **** #if USE_MOTOR_MIXING
  48:firmwares/rotorcraft/main.c **** #include "subsystems/actuators/motor_mixing.h"
  49:firmwares/rotorcraft/main.c **** #endif
  50:firmwares/rotorcraft/main.c **** 
  51:firmwares/rotorcraft/main.c **** #include "subsystems/imu.h"
  52:firmwares/rotorcraft/main.c **** #include "subsystems/gps.h"
  53:firmwares/rotorcraft/main.c **** 
  54:firmwares/rotorcraft/main.c **** #include "subsystems/sensors/baro.h"
  55:firmwares/rotorcraft/main.c **** 
  56:firmwares/rotorcraft/main.c **** #include "subsystems/electrical.h"
  57:firmwares/rotorcraft/main.c **** 
  58:firmwares/rotorcraft/main.c **** #include "firmwares/rotorcraft/autopilot.h"
  59:firmwares/rotorcraft/main.c **** 
  60:firmwares/rotorcraft/main.c **** #include "firmwares/rotorcraft/stabilization.h"
  61:firmwares/rotorcraft/main.c **** #include "firmwares/rotorcraft/guidance.h"
  62:firmwares/rotorcraft/main.c **** 
  63:firmwares/rotorcraft/main.c **** #include "subsystems/ahrs.h"
  64:firmwares/rotorcraft/main.c **** #include "subsystems/ins.h"
  65:firmwares/rotorcraft/main.c **** 
  66:firmwares/rotorcraft/main.c **** #include "state.h"
  67:firmwares/rotorcraft/main.c **** 
  68:firmwares/rotorcraft/main.c **** #include "firmwares/rotorcraft/main.h"
  69:firmwares/rotorcraft/main.c **** 
  70:firmwares/rotorcraft/main.c **** #ifdef SITL
  71:firmwares/rotorcraft/main.c **** #include "nps_autopilot_rotorcraft.h"
  72:firmwares/rotorcraft/main.c **** #endif
  73:firmwares/rotorcraft/main.c **** 
  74:firmwares/rotorcraft/main.c **** #include "generated/modules.h"
  75:firmwares/rotorcraft/main.c **** 
  76:firmwares/rotorcraft/main.c **** 
  77:firmwares/rotorcraft/main.c **** /* if PRINT_CONFIG is defined, print some config options */
  78:firmwares/rotorcraft/main.c **** PRINT_CONFIG_VAR(PERIODIC_FREQUENCY)
  79:firmwares/rotorcraft/main.c **** 
  80:firmwares/rotorcraft/main.c **** #ifndef TELEMETRY_FREQUENCY
  81:firmwares/rotorcraft/main.c **** #define TELEMETRY_FREQUENCY 60
  82:firmwares/rotorcraft/main.c **** #endif
  83:firmwares/rotorcraft/main.c **** PRINT_CONFIG_VAR(TELEMETRY_FREQUENCY)
  84:firmwares/rotorcraft/main.c **** 
  85:firmwares/rotorcraft/main.c **** #ifndef MODULES_FREQUENCY
  86:firmwares/rotorcraft/main.c **** #define MODULES_FREQUENCY 512
  87:firmwares/rotorcraft/main.c **** #endif
  88:firmwares/rotorcraft/main.c **** PRINT_CONFIG_VAR(MODULES_FREQUENCY)
  89:firmwares/rotorcraft/main.c **** 
  90:firmwares/rotorcraft/main.c **** #ifndef BARO_PERIODIC_FREQUENCY
  91:firmwares/rotorcraft/main.c **** #define BARO_PERIODIC_FREQUENCY 50
  92:firmwares/rotorcraft/main.c **** #endif
  93:firmwares/rotorcraft/main.c **** PRINT_CONFIG_VAR(BARO_PERIODIC_FREQUENCY)
  94:firmwares/rotorcraft/main.c **** 
  95:firmwares/rotorcraft/main.c **** 
  96:firmwares/rotorcraft/main.c **** static inline void on_gyro_event( void );
  97:firmwares/rotorcraft/main.c **** static inline void on_accel_event( void );
  98:firmwares/rotorcraft/main.c **** static inline void on_baro_abs_event( void );
  99:firmwares/rotorcraft/main.c **** static inline void on_baro_dif_event( void );
 100:firmwares/rotorcraft/main.c **** static inline void on_gps_event( void );
 101:firmwares/rotorcraft/main.c **** static inline void on_mag_event( void );
 102:firmwares/rotorcraft/main.c **** 
 103:firmwares/rotorcraft/main.c **** 
 104:firmwares/rotorcraft/main.c **** tid_t main_periodic_tid; ///< id for main_periodic() timer
 105:firmwares/rotorcraft/main.c **** tid_t modules_tid;       ///< id for modules_periodic_task() timer
 106:firmwares/rotorcraft/main.c **** tid_t failsafe_tid;      ///< id for failsafe_check() timer
 107:firmwares/rotorcraft/main.c **** tid_t radio_control_tid; ///< id for radio_control_periodic_task() timer
 108:firmwares/rotorcraft/main.c **** tid_t electrical_tid;    ///< id for electrical_periodic() timer
 109:firmwares/rotorcraft/main.c **** tid_t baro_tid;          ///< id for baro_periodic() timer
 110:firmwares/rotorcraft/main.c **** tid_t telemetry_tid;     ///< id for telemetry_periodic() timer
 111:firmwares/rotorcraft/main.c **** 
 112:firmwares/rotorcraft/main.c **** #ifndef SITL
 113:firmwares/rotorcraft/main.c **** int main( void ) {
 114:firmwares/rotorcraft/main.c ****   main_init();
 115:firmwares/rotorcraft/main.c **** 
 116:firmwares/rotorcraft/main.c ****   while(1) {
 117:firmwares/rotorcraft/main.c ****     handle_periodic_tasks();
 118:firmwares/rotorcraft/main.c ****     main_event();
 119:firmwares/rotorcraft/main.c ****   }
 120:firmwares/rotorcraft/main.c ****   return 0;
 121:firmwares/rotorcraft/main.c **** }
 122:firmwares/rotorcraft/main.c **** #endif /* SITL */
 123:firmwares/rotorcraft/main.c **** 
 124:firmwares/rotorcraft/main.c **** STATIC_INLINE void main_init( void ) {
 125:firmwares/rotorcraft/main.c **** 
 126:firmwares/rotorcraft/main.c ****   mcu_init();
 127:firmwares/rotorcraft/main.c **** 
 128:firmwares/rotorcraft/main.c ****   electrical_init();
 129:firmwares/rotorcraft/main.c **** 
 130:firmwares/rotorcraft/main.c ****   stateInit();
 131:firmwares/rotorcraft/main.c **** 
 132:firmwares/rotorcraft/main.c ****   actuators_init();
 133:firmwares/rotorcraft/main.c **** #if USE_MOTOR_MIXING
 134:firmwares/rotorcraft/main.c ****   motor_mixing_init();
 135:firmwares/rotorcraft/main.c **** #endif
 136:firmwares/rotorcraft/main.c **** 
 137:firmwares/rotorcraft/main.c ****   radio_control_init();
 138:firmwares/rotorcraft/main.c **** 
 139:firmwares/rotorcraft/main.c ****   baro_init();
 140:firmwares/rotorcraft/main.c ****   imu_init();
 141:firmwares/rotorcraft/main.c **** 
 142:firmwares/rotorcraft/main.c ****   ahrs_aligner_init();
 143:firmwares/rotorcraft/main.c ****   ahrs_init();
 144:firmwares/rotorcraft/main.c **** 
 145:firmwares/rotorcraft/main.c ****   ins_init();
 146:firmwares/rotorcraft/main.c **** 
 147:firmwares/rotorcraft/main.c **** #if USE_GPS
 148:firmwares/rotorcraft/main.c ****   gps_init();
 149:firmwares/rotorcraft/main.c **** #endif
 150:firmwares/rotorcraft/main.c **** 
 151:firmwares/rotorcraft/main.c ****   autopilot_init();
 152:firmwares/rotorcraft/main.c **** 
 153:firmwares/rotorcraft/main.c ****   modules_init();
 154:firmwares/rotorcraft/main.c **** 
 155:firmwares/rotorcraft/main.c ****   settings_init();
 156:firmwares/rotorcraft/main.c **** 
 157:firmwares/rotorcraft/main.c ****   mcu_int_enable();
 158:firmwares/rotorcraft/main.c **** 
 159:firmwares/rotorcraft/main.c **** #if DATALINK == XBEE
 160:firmwares/rotorcraft/main.c ****   xbee_init();
 161:firmwares/rotorcraft/main.c **** #endif
 162:firmwares/rotorcraft/main.c **** 
 163:firmwares/rotorcraft/main.c **** #if DATALINK == UDP
 164:firmwares/rotorcraft/main.c ****   udp_init();
 165:firmwares/rotorcraft/main.c **** #endif
 166:firmwares/rotorcraft/main.c **** 
 167:firmwares/rotorcraft/main.c ****   // register the timers for the periodic functions
 168:firmwares/rotorcraft/main.c ****   main_periodic_tid = sys_time_register_timer((1./PERIODIC_FREQUENCY), NULL);
 169:firmwares/rotorcraft/main.c ****   modules_tid = sys_time_register_timer(1./MODULES_FREQUENCY, NULL);
 170:firmwares/rotorcraft/main.c ****   radio_control_tid = sys_time_register_timer((1./60.), NULL);
 171:firmwares/rotorcraft/main.c ****   failsafe_tid = sys_time_register_timer(0.05, NULL);
 172:firmwares/rotorcraft/main.c ****   electrical_tid = sys_time_register_timer(0.1, NULL);
 173:firmwares/rotorcraft/main.c ****   baro_tid = sys_time_register_timer(1./BARO_PERIODIC_FREQUENCY, NULL);
 174:firmwares/rotorcraft/main.c ****   telemetry_tid = sys_time_register_timer((1./TELEMETRY_FREQUENCY), NULL);
 175:firmwares/rotorcraft/main.c **** }
 176:firmwares/rotorcraft/main.c **** 
 177:firmwares/rotorcraft/main.c **** STATIC_INLINE void handle_periodic_tasks( void ) {
 178:firmwares/rotorcraft/main.c ****   if (sys_time_check_and_ack_timer(main_periodic_tid))
 179:firmwares/rotorcraft/main.c ****     main_periodic();
 180:firmwares/rotorcraft/main.c ****   if (sys_time_check_and_ack_timer(modules_tid))
 181:firmwares/rotorcraft/main.c ****     modules_periodic_task();
 182:firmwares/rotorcraft/main.c ****   if (sys_time_check_and_ack_timer(radio_control_tid))
 183:firmwares/rotorcraft/main.c ****     radio_control_periodic_task();
 184:firmwares/rotorcraft/main.c ****   if (sys_time_check_and_ack_timer(failsafe_tid))
 185:firmwares/rotorcraft/main.c ****     failsafe_check();
 186:firmwares/rotorcraft/main.c ****   if (sys_time_check_and_ack_timer(electrical_tid))
 187:firmwares/rotorcraft/main.c ****     electrical_periodic();
 188:firmwares/rotorcraft/main.c ****   if (sys_time_check_and_ack_timer(baro_tid))
 189:firmwares/rotorcraft/main.c ****     baro_periodic();
 190:firmwares/rotorcraft/main.c ****   if (sys_time_check_and_ack_timer(telemetry_tid))
 191:firmwares/rotorcraft/main.c ****     telemetry_periodic();
 192:firmwares/rotorcraft/main.c **** }
 193:firmwares/rotorcraft/main.c **** 
 194:firmwares/rotorcraft/main.c **** STATIC_INLINE void main_periodic( void ) {
 195:firmwares/rotorcraft/main.c **** 
 196:firmwares/rotorcraft/main.c ****   imu_periodic();
 197:firmwares/rotorcraft/main.c **** 
 198:firmwares/rotorcraft/main.c ****   /* run control loops */
 199:firmwares/rotorcraft/main.c ****   autopilot_periodic();
 200:firmwares/rotorcraft/main.c ****   /* set actuators     */
 201:firmwares/rotorcraft/main.c ****   //actuators_set(autopilot_motors_on);
 202:firmwares/rotorcraft/main.c ****   SetActuatorsFromCommands(commands, autopilot_mode);
 203:firmwares/rotorcraft/main.c **** 
 204:firmwares/rotorcraft/main.c ****   if (autopilot_in_flight) {
 205:firmwares/rotorcraft/main.c ****     RunOnceEvery(PERIODIC_FREQUENCY, { autopilot_flight_time++; datalink_time++; });
 206:firmwares/rotorcraft/main.c ****   }
 207:firmwares/rotorcraft/main.c **** 
 208:firmwares/rotorcraft/main.c ****   RunOnceEvery(10, LED_PERIODIC());
 209:firmwares/rotorcraft/main.c **** }
 210:firmwares/rotorcraft/main.c **** 
 211:firmwares/rotorcraft/main.c **** STATIC_INLINE void telemetry_periodic(void) {
 212:firmwares/rotorcraft/main.c ****   PeriodicSendMain(DefaultChannel,DefaultDevice);
 213:firmwares/rotorcraft/main.c **** }
 214:firmwares/rotorcraft/main.c **** 
 215:firmwares/rotorcraft/main.c **** STATIC_INLINE void failsafe_check( void ) {
 216:firmwares/rotorcraft/main.c ****   if (radio_control.status != RC_OK &&
 217:firmwares/rotorcraft/main.c ****       autopilot_mode != AP_MODE_KILL &&
 218:firmwares/rotorcraft/main.c ****       autopilot_mode != AP_MODE_NAV)
 219:firmwares/rotorcraft/main.c ****   {
 220:firmwares/rotorcraft/main.c ****     autopilot_set_mode(AP_MODE_FAILSAFE);
 221:firmwares/rotorcraft/main.c ****   }
 222:firmwares/rotorcraft/main.c **** 
 223:firmwares/rotorcraft/main.c **** #if USE_GPS
 224:firmwares/rotorcraft/main.c ****   if (autopilot_mode == AP_MODE_NAV &&
 225:firmwares/rotorcraft/main.c ****       autopilot_motors_on &&
 226:firmwares/rotorcraft/main.c **** #if NO_GPS_LOST_WITH_RC_VALID
 227:firmwares/rotorcraft/main.c ****       radio_control.status != RC_OK &&
 228:firmwares/rotorcraft/main.c **** #endif
 229:firmwares/rotorcraft/main.c ****       GpsIsLost())
 230:firmwares/rotorcraft/main.c ****   {
 231:firmwares/rotorcraft/main.c ****     autopilot_set_mode(AP_MODE_FAILSAFE);
 232:firmwares/rotorcraft/main.c ****   }
 233:firmwares/rotorcraft/main.c **** #endif
 234:firmwares/rotorcraft/main.c **** }
 235:firmwares/rotorcraft/main.c **** 
 236:firmwares/rotorcraft/main.c **** STATIC_INLINE void main_event( void ) {
 237:firmwares/rotorcraft/main.c **** 
 238:firmwares/rotorcraft/main.c ****   i2c_event();
 239:firmwares/rotorcraft/main.c **** 
 240:firmwares/rotorcraft/main.c ****   DatalinkEvent();
 241:firmwares/rotorcraft/main.c **** 
 242:firmwares/rotorcraft/main.c ****   if (autopilot_rc) {
 243:firmwares/rotorcraft/main.c ****     RadioControlEvent(autopilot_on_rc_frame);
 244:firmwares/rotorcraft/main.c ****   }
 245:firmwares/rotorcraft/main.c **** 
 246:firmwares/rotorcraft/main.c ****   ImuEvent(on_gyro_event, on_accel_event, on_mag_event);
 247:firmwares/rotorcraft/main.c **** 
 248:firmwares/rotorcraft/main.c ****   BaroEvent(on_baro_abs_event, on_baro_dif_event);
 249:firmwares/rotorcraft/main.c **** 
 250:firmwares/rotorcraft/main.c **** #if USE_GPS
 251:firmwares/rotorcraft/main.c ****   GpsEvent(on_gps_event);
 252:firmwares/rotorcraft/main.c **** #endif
 253:firmwares/rotorcraft/main.c **** 
 254:firmwares/rotorcraft/main.c **** #if FAILSAFE_GROUND_DETECT || KILL_ON_GROUND_DETECT
 255:firmwares/rotorcraft/main.c ****   DetectGroundEvent();
 256:firmwares/rotorcraft/main.c **** #endif
 257:firmwares/rotorcraft/main.c **** 
 258:firmwares/rotorcraft/main.c ****   modules_event_task();
 259:firmwares/rotorcraft/main.c **** 
 260:firmwares/rotorcraft/main.c **** }
 261:firmwares/rotorcraft/main.c **** 
 262:firmwares/rotorcraft/main.c **** static inline void on_accel_event( void ) {
 263:firmwares/rotorcraft/main.c ****   ImuScaleAccel(imu);
 264:firmwares/rotorcraft/main.c **** 
 265:firmwares/rotorcraft/main.c ****   if (ahrs.status != AHRS_UNINIT) {
 266:firmwares/rotorcraft/main.c ****     ahrs_update_accel();
 267:firmwares/rotorcraft/main.c ****   }
 268:firmwares/rotorcraft/main.c **** }
 269:firmwares/rotorcraft/main.c **** 
 270:firmwares/rotorcraft/main.c **** static inline void on_gyro_event( void ) {
 271:firmwares/rotorcraft/main.c **** 
 272:firmwares/rotorcraft/main.c ****   ImuScaleGyro(imu);
 273:firmwares/rotorcraft/main.c **** 
 274:firmwares/rotorcraft/main.c ****   if (ahrs.status == AHRS_UNINIT) {
 275:firmwares/rotorcraft/main.c ****     ahrs_aligner_run();
 276:firmwares/rotorcraft/main.c ****     if (ahrs_aligner.status == AHRS_ALIGNER_LOCKED)
 277:firmwares/rotorcraft/main.c ****       ahrs_align();
 278:firmwares/rotorcraft/main.c ****   }
 279:firmwares/rotorcraft/main.c ****   else {
 280:firmwares/rotorcraft/main.c ****     ahrs_propagate();
 281:firmwares/rotorcraft/main.c **** #ifdef SITL
 282:firmwares/rotorcraft/main.c ****     if (nps_bypass_ahrs) sim_overwrite_ahrs();
 283:firmwares/rotorcraft/main.c **** #endif
 284:firmwares/rotorcraft/main.c ****     ins_propagate();
 285:firmwares/rotorcraft/main.c ****   }
 286:firmwares/rotorcraft/main.c **** #ifdef USE_VEHICLE_INTERFACE
 287:firmwares/rotorcraft/main.c ****   vi_notify_imu_available();
 288:firmwares/rotorcraft/main.c **** #endif
 289:firmwares/rotorcraft/main.c **** }
 290:firmwares/rotorcraft/main.c **** 
 291:firmwares/rotorcraft/main.c **** static inline void on_baro_abs_event( void ) {
 292:firmwares/rotorcraft/main.c ****   ins_update_baro();
 293:firmwares/rotorcraft/main.c **** #ifdef USE_VEHICLE_INTERFACE
 294:firmwares/rotorcraft/main.c ****   vi_notify_baro_abs_available();
 295:firmwares/rotorcraft/main.c **** #endif
 296:firmwares/rotorcraft/main.c **** }
 297:firmwares/rotorcraft/main.c **** 
 298:firmwares/rotorcraft/main.c **** static inline void on_baro_dif_event( void ) {
  26              		.loc 1 298 0
  27              		.cfi_startproc
  28              		@ args = 0, pretend = 0, frame = 0
  29              		@ frame_needed = 0, uses_anonymous_args = 0
  30              		@ link register save eliminated.
  31 0000 7047     		bx	lr
  32              		.cfi_endproc
  33              	.LFE148:
  35              		.section	.text.stateGetPositionEnu_i,"ax",%progbits
  36              		.align	1
  37              		.thumb
  38              		.thumb_func
  40              	stateGetPositionEnu_i:
  41              	.LFB63:
  42              		.file 2 "./state.h"
   1:./state.h     **** /*
   2:./state.h     ****  * Copyright (C) 2011-2012 Felix Ruess <felix.ruess@gmail.com>
   3:./state.h     ****  *
   4:./state.h     ****  * This file is part of paparazzi.
   5:./state.h     ****  *
   6:./state.h     ****  * paparazzi is free software; you can redistribute it and/or modify
   7:./state.h     ****  * it under the terms of the GNU General Public License as published by
   8:./state.h     ****  * the Free Software Foundation; either version 2, or (at your option)
   9:./state.h     ****  * any later version.
  10:./state.h     ****  *
  11:./state.h     ****  * paparazzi is distributed in the hope that it will be useful,
  12:./state.h     ****  * but WITHOUT ANY WARRANTY; without even the implied warranty of
  13:./state.h     ****  * MERCHANTABILITY or FITNESS FOR A PARTICULAR PURPOSE.  See the
  14:./state.h     ****  * GNU General Public License for more details.
  15:./state.h     ****  *
  16:./state.h     ****  * You should have received a copy of the GNU General Public License
  17:./state.h     ****  * along with paparazzi; see the file COPYING.  If not, see
  18:./state.h     ****  * <http://www.gnu.org/licenses/>.
  19:./state.h     ****  */
  20:./state.h     **** 
  21:./state.h     **** /**
  22:./state.h     ****  * @file state.h
  23:./state.h     ****  *
  24:./state.h     ****  * API to get/set the generic vehicle states.
  25:./state.h     ****  *
  26:./state.h     ****  * Also see the @ref state_interface "State Interface" page.
  27:./state.h     ****  *
  28:./state.h     ****  * @author Felix Ruess <felix.ruess@gmail.com>
  29:./state.h     ****  */
  30:./state.h     **** 
  31:./state.h     **** #ifndef STATE_H
  32:./state.h     **** #define STATE_H
  33:./state.h     **** 
  34:./state.h     **** #include "math/pprz_algebra_int.h"
  35:./state.h     **** #include "math/pprz_algebra_float.h"
  36:./state.h     **** #include "math/pprz_geodetic_int.h"
  37:./state.h     **** #include "math/pprz_geodetic_float.h"
  38:./state.h     **** #include "math/pprz_orientation_conversion.h"
  39:./state.h     **** 
  40:./state.h     **** #include "std.h"
  41:./state.h     **** #include <string.h>
  42:./state.h     **** 
  43:./state.h     **** /**
  44:./state.h     ****  * This general state interface holds all the most important vehicle states like
  45:./state.h     ****  * position, velocity, attitude, etc. It handles coordinate system and
  46:./state.h     ****  * fixed-/floating-point conversion on the fly when needed.
  47:./state.h     ****  *
  48:./state.h     ****  * You can set e.g. the position in any coordinate system you wish:
  49:./state.h     ****  * stateSetPositionNed_i() to set the position in fixed-point NED coordinates.
  50:./state.h     ****  * If you need to read the position somewhere else in a different representation,
  51:./state.h     ****  * call: stateGetPositionLla_f() and only then the LLA float position representation
  52:./state.h     ****  * is calculated on the fly and returned. It's also only calculated once,
  53:./state.h     ****  * until a new position is set which invalidates all the other representations again.
  54:./state.h     ****  */
  55:./state.h     **** 
  56:./state.h     **** /**
  57:./state.h     ****  * @defgroup state_interface State interface
  58:./state.h     ****  * @{
  59:./state.h     ****  */
  60:./state.h     **** 
  61:./state.h     **** /**
  62:./state.h     ****  * @defgroup state_position Position representations
  63:./state.h     ****  * @{
  64:./state.h     ****  */
  65:./state.h     **** #define POS_ECEF_I 0
  66:./state.h     **** #define POS_NED_I  1
  67:./state.h     **** #define POS_ENU_I  2
  68:./state.h     **** #define POS_LLA_I  3
  69:./state.h     **** #define POS_UTM_I  4
  70:./state.h     **** #define POS_ECEF_F 5
  71:./state.h     **** #define POS_NED_F  6
  72:./state.h     **** #define POS_ENU_F  7
  73:./state.h     **** #define POS_LLA_F  8
  74:./state.h     **** #define POS_UTM_F  9
  75:./state.h     **** #define POS_LOCAL_COORD ((1<<POS_NED_I)|(1<<POS_NED_F)|(1<<POS_ENU_I)|(1<<POS_ENU_F))
  76:./state.h     **** #define POS_GLOBAL_COORD ((1<<POS_ECEF_I)|(1<<POS_ECEF_F)|(1<<POS_LLA_I)|(1<<POS_LLA_F)|(1<<POS_UTM
  77:./state.h     **** /**@}*/
  78:./state.h     **** 
  79:./state.h     **** /**
  80:./state.h     ****  * @defgroup state_velocity Speed representations
  81:./state.h     ****  * @{
  82:./state.h     ****  */
  83:./state.h     **** #define SPEED_ECEF_I  0
  84:./state.h     **** #define SPEED_NED_I   1
  85:./state.h     **** #define SPEED_ENU_I   2
  86:./state.h     **** #define SPEED_HNORM_I 3
  87:./state.h     **** #define SPEED_HDIR_I  4
  88:./state.h     **** #define SPEED_ECEF_F  5
  89:./state.h     **** #define SPEED_NED_F   6
  90:./state.h     **** #define SPEED_ENU_F   7
  91:./state.h     **** #define SPEED_HNORM_F 8
  92:./state.h     **** #define SPEED_HDIR_F  9
  93:./state.h     **** #define SPEED_LOCAL_COORD ((1<<SPEED_NED_I)|(1<<SPEED_ENU_I)|(1<<SPEED_NED_F)|(1<<SPEED_ENU_F))
  94:./state.h     **** /**@}*/
  95:./state.h     **** 
  96:./state.h     **** /**
  97:./state.h     ****  * @defgroup state_acceleration Acceleration representations
  98:./state.h     ****  * @{
  99:./state.h     ****  */
 100:./state.h     **** #define ACCEL_ECEF_I 0
 101:./state.h     **** #define ACCEL_NED_I  1
 102:./state.h     **** #define ACCEL_ECEF_F 2
 103:./state.h     **** #define ACCEL_NED_F  3
 104:./state.h     **** /**@}*/
 105:./state.h     **** 
 106:./state.h     **** /**
 107:./state.h     ****  * @defgroup state_rate Angular rate representations
 108:./state.h     ****  * @{
 109:./state.h     ****  */
 110:./state.h     **** #define RATE_I 0
 111:./state.h     **** #define RATE_F 1
 112:./state.h     **** /**@}*/
 113:./state.h     **** 
 114:./state.h     **** /**
 115:./state.h     ****  * @defgroup state_wind_airspeed Wind- and airspeed representations
 116:./state.h     ****  * @{
 117:./state.h     ****  */
 118:./state.h     **** #define WINDSPEED_I 0
 119:./state.h     **** #define AIRSPEED_I  1
 120:./state.h     **** #define WINDSPEED_F 2
 121:./state.h     **** #define AIRSPEED_F  3
 122:./state.h     **** #define AOA_F       4
 123:./state.h     **** #define SIDESLIP_F  5
 124:./state.h     **** /**@}*/
 125:./state.h     **** 
 126:./state.h     **** 
 127:./state.h     **** /**
 128:./state.h     ****  * Structure holding vehicle state data.
 129:./state.h     ****  */
 130:./state.h     **** struct State {
 131:./state.h     **** 
 132:./state.h     ****   /** @addtogroup state_position
 133:./state.h     ****    *  @{ */
 134:./state.h     **** 
 135:./state.h     ****   /**
 136:./state.h     ****    * Holds the status bits for all position representations.
 137:./state.h     ****    * When the corresponding bit is set the representation
 138:./state.h     ****    * is already computed.
 139:./state.h     ****    */
 140:./state.h     ****   uint16_t pos_status;
 141:./state.h     **** 
 142:./state.h     ****   /**
 143:./state.h     ****    * Position in EarthCenteredEarthFixed coordinates.
 144:./state.h     ****    * Units: centimeters
 145:./state.h     ****    */
 146:./state.h     ****   struct EcefCoor_i ecef_pos_i;
 147:./state.h     **** 
 148:./state.h     ****   /**
 149:./state.h     ****    * Position in Latitude, Longitude and Altitude.
 150:./state.h     ****    * Units lat,lon: radians*1e7
 151:./state.h     ****    * Units alt: milimeters above reference ellipsoid
 152:./state.h     ****    */
 153:./state.h     ****   struct LlaCoor_i lla_pos_i;
 154:./state.h     **** 
 155:./state.h     ****   /**
 156:./state.h     ****    * Definition of the local (flat earth) coordinate system.
 157:./state.h     ****    * Defines the origin of the local NorthEastDown coordinate system
 158:./state.h     ****    * in ECEF (EarthCenteredEarthFixed) and LLA (LatitudeLongitudeAlt)
 159:./state.h     ****    * coordinates and the roation matrix from ECEF to local frame.
 160:./state.h     ****    * (int version)
 161:./state.h     ****    */
 162:./state.h     ****   struct LtpDef_i ned_origin_i;
 163:./state.h     **** 
 164:./state.h     ****   /**
 165:./state.h     ****    * true if local int coordinate frame is initialsed
 166:./state.h     ****    */
 167:./state.h     ****   bool_t ned_initialized_i;
 168:./state.h     **** 
 169:./state.h     ****   /**
 170:./state.h     ****    * Position in North East Down coordinates.
 171:./state.h     ****    * with respect to ned_origin_i (flat earth)
 172:./state.h     ****    * Units: m in BFP with INT32_POS_FRAC
 173:./state.h     ****    */
 174:./state.h     ****   struct NedCoor_i ned_pos_i;
 175:./state.h     **** 
 176:./state.h     ****   /**
 177:./state.h     ****    * Position in East North Up coordinates.
 178:./state.h     ****    * with respect to ned_origin_i (flat earth)
 179:./state.h     ****    * Units: m in BFP with INT32_POS_FRAC
 180:./state.h     ****    */
 181:./state.h     ****   struct EnuCoor_i enu_pos_i;
 182:./state.h     **** 
 183:./state.h     ****   /**
 184:./state.h     ****    * Position in UTM coordinates.
 185:./state.h     ****    * Units x,y: meters.
 186:./state.h     ****    * Units z: meters above MSL
 187:./state.h     ****    */
 188:./state.h     ****   struct UtmCoor_f utm_pos_f;
 189:./state.h     **** 
 190:./state.h     ****   /**
 191:./state.h     ****    * Altitude above ground level.
 192:./state.h     ****    * Unit: meters
 193:./state.h     ****    */
 194:./state.h     ****   float alt_agl_f;
 195:./state.h     **** 
 196:./state.h     ****   /**
 197:./state.h     ****    * Position in Latitude, Longitude and Altitude.
 198:./state.h     ****    * Units lat,lon: radians
 199:./state.h     ****    * Units alt: meters above reference ellipsoid
 200:./state.h     ****    */
 201:./state.h     ****   struct LlaCoor_f lla_pos_f;
 202:./state.h     **** 
 203:./state.h     ****   /**
 204:./state.h     ****    * Position in EarthCenteredEarthFixed coordinates.
 205:./state.h     ****    * Units: meters
 206:./state.h     ****    */
 207:./state.h     ****   struct EcefCoor_f ecef_pos_f;
 208:./state.h     **** 
 209:./state.h     ****   /**
 210:./state.h     ****    * Definition of the local (flat earth) coordinate system.
 211:./state.h     ****    * Defines the origin of the local NorthEastDown coordinate system
 212:./state.h     ****    * in ECEF (EarthCenteredEarthFixed) and LLA (LatitudeLongitudeAlt)
 213:./state.h     ****    * coordinates and the roation matrix from ECEF to local frame.
 214:./state.h     ****    * (float version)
 215:./state.h     ****    */
 216:./state.h     ****   struct LtpDef_f ned_origin_f;
 217:./state.h     **** 
 218:./state.h     ****   /// True if local float coordinate frame is initialsed
 219:./state.h     ****   bool_t ned_initialized_f;
 220:./state.h     **** 
 221:./state.h     ****   /**
 222:./state.h     ****    * Definition of the origin of Utm coordinate system.
 223:./state.h     ****    * Defines the origin of the local NorthEastDown coordinate system
 224:./state.h     ****    * in UTM coordinates, used as a reference when ned_origin is not
 225:./state.h     ****    * initialized.
 226:./state.h     ****    * (float version)
 227:./state.h     ****    */
 228:./state.h     ****   struct UtmCoor_f utm_origin_f;
 229:./state.h     **** 
 230:./state.h     ****   /// True if utm origin (float) coordinate frame is initialsed
 231:./state.h     ****   bool_t utm_initialized_f;
 232:./state.h     **** 
 233:./state.h     ****   /**
 234:./state.h     ****    * Position in North East Down coordinates.
 235:./state.h     ****    * with respect to ned_origin_i (flat earth)
 236:./state.h     ****    * Units: meters
 237:./state.h     ****    */
 238:./state.h     ****   struct NedCoor_f ned_pos_f;
 239:./state.h     **** 
 240:./state.h     ****   /**
 241:./state.h     ****    * Position in East North Up coordinates.
 242:./state.h     ****    * with respect to ned_origin_i (flat earth)
 243:./state.h     ****    * Units: meters
 244:./state.h     ****    */
 245:./state.h     ****   struct EnuCoor_f enu_pos_f;
 246:./state.h     ****   /** @}*/
 247:./state.h     **** 
 248:./state.h     **** 
 249:./state.h     ****   /** @addtogroup state_velocity
 250:./state.h     ****    *  @{ */
 251:./state.h     ****   /**
 252:./state.h     ****    * Holds the status bits for all ground speed representations.
 253:./state.h     ****    * When the corresponding bit is one the representation
 254:./state.h     ****    * is already computed.
 255:./state.h     ****    */
 256:./state.h     ****   uint16_t speed_status;
 257:./state.h     **** 
 258:./state.h     ****   /**
 259:./state.h     ****    * Velocity in EarthCenteredEarthFixed coordinates.
 260:./state.h     ****    * Units: m/s in BFP with #INT32_SPEED_FRAC
 261:./state.h     ****    */
 262:./state.h     ****   struct EcefCoor_i ecef_speed_i;
 263:./state.h     **** 
 264:./state.h     ****   /**
 265:./state.h     ****    * Velocity in North East Down coordinates.
 266:./state.h     ****    * Units: m/s in BFP with #INT32_SPEED_FRAC
 267:./state.h     ****    */
 268:./state.h     ****   struct NedCoor_i ned_speed_i;
 269:./state.h     **** 
 270:./state.h     ****   /**
 271:./state.h     ****    * Velocity in East North Up coordinates.
 272:./state.h     ****    * Units: m/s in BFP with #INT32_SPEED_FRAC
 273:./state.h     ****    */
 274:./state.h     ****   struct EnuCoor_i enu_speed_i;
 275:./state.h     **** 
 276:./state.h     ****   /**
 277:./state.h     ****    * Norm of horizontal ground speed.
 278:./state.h     ****    * Unit: m/s in BFP with #INT32_SPEED_FRAC
 279:./state.h     ****    */
 280:./state.h     ****   int32_t h_speed_norm_i;
 281:./state.h     **** 
 282:./state.h     ****   /**
 283:./state.h     ****    * Direction of horizontal ground speed.
 284:./state.h     ****    * Unit: rad in BFP with #INT32_ANGLE_FRAC
 285:./state.h     ****    * (clockwise, zero=north)
 286:./state.h     ****    */
 287:./state.h     ****   int32_t h_speed_dir_i;
 288:./state.h     **** 
 289:./state.h     ****   /**
 290:./state.h     ****    * Velocity in EarthCenteredEarthFixed coordinates.
 291:./state.h     ****    * Units: m/s
 292:./state.h     ****    */
 293:./state.h     ****   struct EcefCoor_f ecef_speed_f;
 294:./state.h     **** 
 295:./state.h     ****   /**
 296:./state.h     ****    * @brief speed in North East Down coordinates
 297:./state.h     ****    * @details Units: m/s */
 298:./state.h     ****   struct NedCoor_f ned_speed_f;
 299:./state.h     **** 
 300:./state.h     ****   /**
 301:./state.h     ****    * Velocity in East North Up coordinates.
 302:./state.h     ****    * Units: m/s
 303:./state.h     ****    */
 304:./state.h     ****   struct EnuCoor_f enu_speed_f;
 305:./state.h     **** 
 306:./state.h     ****   /**
 307:./state.h     ****    * Norm of horizontal ground speed.
 308:./state.h     ****    * Unit: m/s
 309:./state.h     ****    */
 310:./state.h     ****   float h_speed_norm_f;
 311:./state.h     **** 
 312:./state.h     ****   /**
 313:./state.h     ****    * Direction of horizontal ground speed.
 314:./state.h     ****    * Unit: rad (clockwise, zero=north)
 315:./state.h     ****    */
 316:./state.h     ****   float h_speed_dir_f;
 317:./state.h     ****   /** @}*/
 318:./state.h     **** 
 319:./state.h     **** 
 320:./state.h     ****   /** @addtogroup state_acceleration
 321:./state.h     ****    *  @{ */
 322:./state.h     ****   /**
 323:./state.h     ****    * Holds the status bits for all acceleration representations.
 324:./state.h     ****    * When the corresponding bit is one the representation
 325:./state.h     ****    * is already computed.
 326:./state.h     ****    */
 327:./state.h     ****   uint8_t accel_status;
 328:./state.h     **** 
 329:./state.h     ****   /**
 330:./state.h     ****    * Acceleration in North East Down coordinates.
 331:./state.h     ****    * Units: m/s^2 in BFP with #INT32_ACCEL_FRAC
 332:./state.h     ****    */
 333:./state.h     ****   struct NedCoor_i ned_accel_i;
 334:./state.h     **** 
 335:./state.h     ****   /**
 336:./state.h     ****    * Acceleration in EarthCenteredEarthFixed coordinates.
 337:./state.h     ****    * Units: m/s^2 in BFP with INT32_ACCEL_FRAC
 338:./state.h     ****    */
 339:./state.h     ****   struct EcefCoor_i ecef_accel_i;
 340:./state.h     **** 
 341:./state.h     ****   /**
 342:./state.h     ****    * Acceleration in North East Down coordinates.
 343:./state.h     ****    * Units: m/s^2
 344:./state.h     ****    */
 345:./state.h     ****   struct NedCoor_f ned_accel_f;
 346:./state.h     **** 
 347:./state.h     ****   /**
 348:./state.h     ****    * Acceleration in EarthCenteredEarthFixed coordinates.
 349:./state.h     ****    * Units: m/s^2
 350:./state.h     ****    */
 351:./state.h     ****   struct EcefCoor_f ecef_accel_f;
 352:./state.h     ****   /** @}*/
 353:./state.h     **** 
 354:./state.h     **** 
 355:./state.h     ****   /** @defgroup state_attitude Attitude representations
 356:./state.h     ****    */
 357:./state.h     ****   struct OrientationReps ned_to_body_orientation;
 358:./state.h     **** 
 359:./state.h     **** 
 360:./state.h     ****   /** @addtogroup state_rate
 361:./state.h     ****    *  @{ */
 362:./state.h     ****   /**
 363:./state.h     ****    * Holds the status bits for all angular rate representations.
 364:./state.h     ****    * When the corresponding bit is one the representation
 365:./state.h     ****    * is already computed.
 366:./state.h     ****    */
 367:./state.h     ****   uint8_t rate_status;
 368:./state.h     **** 
 369:./state.h     ****   /**
 370:./state.h     ****    * Angular rates in body frame.
 371:./state.h     ****    * Units: rad/s in BFP with #INT32_RATE_FRAC
 372:./state.h     ****    */
 373:./state.h     ****   struct Int32Rates  body_rates_i;
 374:./state.h     **** 
 375:./state.h     ****   /**
 376:./state.h     ****    * Angular rates in body frame.
 377:./state.h     ****    * Units: rad/s
 378:./state.h     ****    */
 379:./state.h     ****   struct FloatRates  body_rates_f;
 380:./state.h     ****   /** @}*/
 381:./state.h     **** 
 382:./state.h     **** 
 383:./state.h     ****   /** @addtogroup state_wind_airspeed
 384:./state.h     ****    *  @{ */
 385:./state.h     ****   /**
 386:./state.h     ****    * Holds the status bits for all wind- and airspeed representations.
 387:./state.h     ****    * When the corresponding bit is one the representation
 388:./state.h     ****    * is already computed.
 389:./state.h     ****    */
 390:./state.h     ****   uint8_t wind_air_status;
 391:./state.h     **** 
 392:./state.h     ****   /**
 393:./state.h     ****    * Horizontal windspeed in north/east.
 394:./state.h     ****    * Units: m/s in BFP with #INT32_SPEED_FRAC
 395:./state.h     ****    */
 396:./state.h     ****   struct Int32Vect2 h_windspeed_i;
 397:./state.h     **** 
 398:./state.h     ****   /**
 399:./state.h     ****    * Norm of horizontal ground speed.
 400:./state.h     ****    * @details Unit: m/s in BFP with #INT32_SPEED_FRAC
 401:./state.h     ****    */
 402:./state.h     ****   int32_t airspeed_i;
 403:./state.h     **** 
 404:./state.h     ****   /**
 405:./state.h     ****    * Horizontal windspeed.
 406:./state.h     ****    * Units: m/s with x=north, y=east
 407:./state.h     ****    */
 408:./state.h     ****   struct FloatVect2 h_windspeed_f;
 409:./state.h     **** 
 410:./state.h     ****   /**
 411:./state.h     ****    * Norm of relative air speed.
 412:./state.h     ****    * Unit: m/s
 413:./state.h     ****    */
 414:./state.h     ****   float airspeed_f;
 415:./state.h     **** 
 416:./state.h     ****   /**
 417:./state.h     ****    * Angle of attack
 418:./state.h     ****    * Unit: rad
 419:./state.h     ****    */
 420:./state.h     ****   float angle_of_attack_f;
 421:./state.h     **** 
 422:./state.h     ****   /**
 423:./state.h     ****    * Sideslip angle
 424:./state.h     ****    * Unit: rad
 425:./state.h     ****    */
 426:./state.h     ****   float sideslip_f;
 427:./state.h     **** 
 428:./state.h     ****   /** @}*/
 429:./state.h     **** 
 430:./state.h     **** };
 431:./state.h     **** 
 432:./state.h     **** extern struct State state;
 433:./state.h     **** 
 434:./state.h     **** extern void stateInit(void);
 435:./state.h     **** 
 436:./state.h     **** /** @addtogroup state_position
 437:./state.h     ****  *  @{ */
 438:./state.h     **** 
 439:./state.h     **** /// Set the local (flat earth) coordinate frame origin (int).
 440:./state.h     **** static inline void stateSetLocalOrigin_i(struct LtpDef_i* ltp_def) {
 441:./state.h     ****   memcpy(&state.ned_origin_i, ltp_def, sizeof(struct LtpDef_i));
 442:./state.h     ****   /* convert to float */
 443:./state.h     ****   ECEF_FLOAT_OF_BFP(state.ned_origin_f.ecef, state.ned_origin_i.ecef);
 444:./state.h     ****   LLA_FLOAT_OF_BFP(state.ned_origin_f.lla, state.ned_origin_i.lla);
 445:./state.h     ****   RMAT_FLOAT_OF_BFP(state.ned_origin_f.ltp_of_ecef, state.ned_origin_i.ltp_of_ecef);
 446:./state.h     ****   state.ned_origin_f.hmsl = M_OF_MM(state.ned_origin_i.hmsl);
 447:./state.h     **** 
 448:./state.h     ****   /* clear bits for all local frame representations */
 449:./state.h     ****   state.pos_status &= ~(POS_LOCAL_COORD);
 450:./state.h     ****   state.speed_status &= ~(SPEED_LOCAL_COORD);
 451:./state.h     ****   ClearBit(state.accel_status, ACCEL_NED_I);
 452:./state.h     ****   ClearBit(state.accel_status, ACCEL_NED_F);
 453:./state.h     **** 
 454:./state.h     ****   state.ned_initialized_i = TRUE;
 455:./state.h     ****   state.ned_initialized_f = TRUE;
 456:./state.h     **** }
 457:./state.h     **** 
 458:./state.h     **** /// Set the local (flat earth) coordinate frame origin from UTM (float).
 459:./state.h     **** static inline void stateSetLocalUtmOrigin_f(struct UtmCoor_f* utm_def) {
 460:./state.h     ****   memcpy(&state.utm_origin_f, utm_def, sizeof(struct UtmCoor_f));
 461:./state.h     ****   state.utm_initialized_f = TRUE;
 462:./state.h     **** 
 463:./state.h     ****   /* clear bits for all local frame representations */
 464:./state.h     ****   state.pos_status &= ~(POS_LOCAL_COORD);
 465:./state.h     ****   state.speed_status &= ~(SPEED_LOCAL_COORD);
 466:./state.h     ****   ClearBit(state.accel_status, ACCEL_NED_I);
 467:./state.h     ****   ClearBit(state.accel_status, ACCEL_NED_F);
 468:./state.h     **** }
 469:./state.h     **** /*******************************************************************************
 470:./state.h     ****  *                                                                             *
 471:./state.h     ****  * Set and Get functions for the POSITION representations                      *
 472:./state.h     ****  *                                                                             *
 473:./state.h     ****  ******************************************************************************/
 474:./state.h     **** 
 475:./state.h     **** /************* declaration of transformation functions ************/
 476:./state.h     **** extern void stateCalcPositionEcef_i(void);
 477:./state.h     **** extern void stateCalcPositionNed_i(void);
 478:./state.h     **** extern void stateCalcPositionEnu_i(void);
 479:./state.h     **** extern void stateCalcPositionLla_i(void);
 480:./state.h     **** extern void stateCalcPositionUtm_f(void);
 481:./state.h     **** extern void stateCalcPositionEcef_f(void);
 482:./state.h     **** extern void stateCalcPositionNed_f(void);
 483:./state.h     **** extern void stateCalcPositionEnu_f(void);
 484:./state.h     **** extern void stateCalcPositionLla_f(void);
 485:./state.h     **** 
 486:./state.h     **** /*********************** validity test functions ******************/
 487:./state.h     **** 
 488:./state.h     **** /// Test if local coordinates are valid.
 489:./state.h     **** static inline bool_t stateIsLocalCoordinateValid(void) {
 490:./state.h     ****   return ((state.ned_initialized_i || state.utm_initialized_f) && (state.pos_status & (POS_LOCAL_CO
 491:./state.h     **** }
 492:./state.h     **** 
 493:./state.h     **** /// Test if global coordinates are valid.
 494:./state.h     **** static inline bool_t stateIsGlobalCoordinateValid(void) {
 495:./state.h     ****   return ((state.pos_status & (POS_GLOBAL_COORD)) || stateIsLocalCoordinateValid());
 496:./state.h     **** }
 497:./state.h     **** 
 498:./state.h     **** /************************ Set functions ****************************/
 499:./state.h     **** 
 500:./state.h     **** /// Set position from ECEF coordinates (int).
 501:./state.h     **** static inline void stateSetPositionEcef_i(struct EcefCoor_i* ecef_pos) {
 502:./state.h     ****   INT32_VECT3_COPY(state.ecef_pos_i, *ecef_pos);
 503:./state.h     ****   /* clear bits for all position representations and only set the new one */
 504:./state.h     ****   state.pos_status = (1 << POS_ECEF_I);
 505:./state.h     **** }
 506:./state.h     **** 
 507:./state.h     **** /// Set position from local NED coordinates (int).
 508:./state.h     **** static inline void stateSetPositionNed_i(struct NedCoor_i* ned_pos) {
 509:./state.h     ****   INT32_VECT3_COPY(state.ned_pos_i, *ned_pos);
 510:./state.h     ****   /* clear bits for all position representations and only set the new one */
 511:./state.h     ****   state.pos_status = (1 << POS_NED_I);
 512:./state.h     **** }
 513:./state.h     **** 
 514:./state.h     **** /// Set position from local ENU coordinates (int).
 515:./state.h     **** static inline void stateSetPositionEnu_i(struct EnuCoor_i* enu_pos) {
 516:./state.h     ****   INT32_VECT3_COPY(state.enu_pos_i, *enu_pos);
 517:./state.h     ****   /* clear bits for all position representations and only set the new one */
 518:./state.h     ****   state.pos_status = (1 << POS_ENU_I);
 519:./state.h     **** }
 520:./state.h     **** 
 521:./state.h     **** /// Set position from LLA coordinates (int).
 522:./state.h     **** static inline void stateSetPositionLla_i(struct LlaCoor_i* lla_pos) {
 523:./state.h     ****   LLA_COPY(state.lla_pos_i, *lla_pos);
 524:./state.h     ****   /* clear bits for all position representations and only set the new one */
 525:./state.h     ****   state.pos_status = (1 << POS_LLA_I);
 526:./state.h     **** }
 527:./state.h     **** 
 528:./state.h     **** /// Set multiple position coordinates (int).
 529:./state.h     **** static inline void stateSetPosition_i(
 530:./state.h     ****     struct EcefCoor_i* ecef_pos,
 531:./state.h     ****     struct NedCoor_i* ned_pos,
 532:./state.h     ****     struct EnuCoor_i* enu_pos,
 533:./state.h     ****     struct LlaCoor_i* lla_pos) {
 534:./state.h     ****   /* clear all status bit */
 535:./state.h     ****   state.pos_status = 0;
 536:./state.h     ****   if (ecef_pos != NULL) {
 537:./state.h     ****     INT32_VECT3_COPY(state.ecef_pos_i, *ecef_pos);
 538:./state.h     ****     state.pos_status |= (1 << POS_ECEF_I);
 539:./state.h     ****   }
 540:./state.h     ****   if (ned_pos != NULL) {
 541:./state.h     ****     INT32_VECT3_COPY(state.ned_pos_i, *ned_pos);
 542:./state.h     ****     state.pos_status |= (1 << POS_NED_I);
 543:./state.h     ****   }
 544:./state.h     ****   if (enu_pos != NULL) {
 545:./state.h     ****     INT32_VECT3_COPY(state.enu_pos_i, *enu_pos);
 546:./state.h     ****     state.pos_status |= (1 << POS_ENU_I);
 547:./state.h     ****   }
 548:./state.h     ****   if (lla_pos != NULL) {
 549:./state.h     ****     LLA_COPY(state.lla_pos_i, *lla_pos);
 550:./state.h     ****     state.pos_status |= (1 << POS_LLA_I);
 551:./state.h     ****   }
 552:./state.h     **** }
 553:./state.h     **** 
 554:./state.h     **** /// Set position from UTM coordinates (float).
 555:./state.h     **** static inline void stateSetPositionUtm_f(struct UtmCoor_f* utm_pos) {
 556:./state.h     ****   memcpy(&state.utm_pos_f, utm_pos, sizeof(struct UtmCoor_f));
 557:./state.h     ****   /* clear bits for all position representations and only set the new one */
 558:./state.h     ****   state.pos_status = (1 << POS_UTM_F);
 559:./state.h     **** }
 560:./state.h     **** 
 561:./state.h     **** /// Set position from ECEF coordinates (float).
 562:./state.h     **** static inline void stateSetPositionEcef_f(struct EcefCoor_f* ecef_pos) {
 563:./state.h     ****   VECT3_COPY(state.ecef_pos_f, *ecef_pos);
 564:./state.h     ****   /* clear bits for all position representations and only set the new one */
 565:./state.h     ****   state.pos_status = (1 << POS_ECEF_F);
 566:./state.h     **** }
 567:./state.h     **** 
 568:./state.h     **** /// Set position from local NED coordinates (float).
 569:./state.h     **** static inline void stateSetPositionNed_f(struct NedCoor_f* ned_pos) {
 570:./state.h     ****   VECT3_COPY(state.ned_pos_f, *ned_pos);
 571:./state.h     ****   /* clear bits for all position representations and only set the new one */
 572:./state.h     ****   state.pos_status = (1 << POS_NED_F);
 573:./state.h     **** }
 574:./state.h     **** 
 575:./state.h     **** /// Set position from local ENU coordinates (float).
 576:./state.h     **** static inline void stateSetPositionEnu_f(struct EnuCoor_f* enu_pos) {
 577:./state.h     ****   VECT3_COPY(state.enu_pos_f, *enu_pos);
 578:./state.h     ****   /* clear bits for all position representations and only set the new one */
 579:./state.h     ****   state.pos_status = (1 << POS_ENU_F);
 580:./state.h     **** }
 581:./state.h     **** 
 582:./state.h     **** /// Set position from LLA coordinates (float).
 583:./state.h     **** static inline void stateSetPositionLla_f(struct LlaCoor_f* lla_pos) {
 584:./state.h     ****   LLA_COPY(state.lla_pos_f, *lla_pos);
 585:./state.h     ****   /* clear bits for all position representations and only set the new one */
 586:./state.h     ****   state.pos_status = (1 << POS_LLA_F);
 587:./state.h     **** }
 588:./state.h     **** 
 589:./state.h     **** /// Set multiple position coordinates (float).
 590:./state.h     **** static inline void stateSetPosition_f(
 591:./state.h     ****     struct EcefCoor_f* ecef_pos,
 592:./state.h     ****     struct NedCoor_f* ned_pos,
 593:./state.h     ****     struct EnuCoor_f* enu_pos,
 594:./state.h     ****     struct LlaCoor_f* lla_pos,
 595:./state.h     ****     struct UtmCoor_f* utm_pos) {
 596:./state.h     ****   /* clear all status bit */
 597:./state.h     ****   state.pos_status = 0;
 598:./state.h     ****   if (ecef_pos != NULL) {
 599:./state.h     ****     VECT3_COPY(state.ecef_pos_f, *ecef_pos);
 600:./state.h     ****     state.pos_status |= (1 << POS_ECEF_F);
 601:./state.h     ****   }
 602:./state.h     ****   if (ned_pos != NULL) {
 603:./state.h     ****     VECT3_COPY(state.ned_pos_f, *ned_pos);
 604:./state.h     ****     state.pos_status |= (1 << POS_NED_F);
 605:./state.h     ****   }
 606:./state.h     ****   if (enu_pos != NULL) {
 607:./state.h     ****     VECT3_COPY(state.enu_pos_f, *enu_pos);
 608:./state.h     ****     state.pos_status |= (1 << POS_ENU_F);
 609:./state.h     ****   }
 610:./state.h     ****   if (lla_pos != NULL) {
 611:./state.h     ****     LLA_COPY(state.lla_pos_f, *lla_pos);
 612:./state.h     ****     state.pos_status |= (1 << POS_LLA_F);
 613:./state.h     ****   }
 614:./state.h     ****   if (utm_pos != NULL) {
 615:./state.h     ****     memcpy(&state.utm_pos_f, utm_pos, sizeof(struct UtmCoor_f));
 616:./state.h     ****     state.pos_status |= (1 << POS_UTM_F);
 617:./state.h     ****   }
 618:./state.h     **** }
 619:./state.h     **** 
 620:./state.h     **** /************************ Get functions ****************************/
 621:./state.h     **** 
 622:./state.h     **** /// Get position in ECEF coordinates (int).
 623:./state.h     **** static inline struct EcefCoor_i* stateGetPositionEcef_i(void) {
 624:./state.h     ****   if (!bit_is_set(state.pos_status, POS_ECEF_I))
 625:./state.h     ****     stateCalcPositionEcef_i();
 626:./state.h     ****   return &state.ecef_pos_i;
 627:./state.h     **** }
 628:./state.h     **** 
 629:./state.h     **** /// Get position in local NED coordinates (int).
 630:./state.h     **** static inline struct NedCoor_i* stateGetPositionNed_i(void) {
 631:./state.h     ****   if (!bit_is_set(state.pos_status, POS_NED_I))
 632:./state.h     ****     stateCalcPositionNed_i();
 633:./state.h     ****   return &state.ned_pos_i;
 634:./state.h     **** }
 635:./state.h     **** 
 636:./state.h     **** /// Get position in local ENU coordinates (int).
 637:./state.h     **** static inline struct EnuCoor_i* stateGetPositionEnu_i(void) {
  43              		.loc 2 637 0
  44              		.cfi_startproc
  45              		@ args = 0, pretend = 0, frame = 0
  46              		@ frame_needed = 0, uses_anonymous_args = 0
  47              		.loc 2 637 0
  48 0000 08B5     		push	{r3, lr}
  49              	.LCFI0:
  50              		.cfi_def_cfa_offset 8
  51              		.cfi_offset 3, -8
  52              		.cfi_offset 14, -4
 638:./state.h     ****   if (!bit_is_set(state.pos_status, POS_ENU_I))
  53              		.loc 2 638 0
  54 0002 044B     		ldr	r3, .L5
  55 0004 1888     		ldrh	r0, [r3, #0]
  56 0006 4307     		lsls	r3, r0, #29
  57 0008 01D4     		bmi	.L3
 639:./state.h     ****     stateCalcPositionEnu_i();
  58              		.loc 2 639 0
  59 000a FFF7FEFF 		bl	stateCalcPositionEnu_i
  60              	.LVL0:
  61              	.L3:
 640:./state.h     ****   return &state.enu_pos_i;
 641:./state.h     **** }
  62              		.loc 2 641 0
  63 000e 0248     		ldr	r0, .L5+4
  64 0010 08BD     		pop	{r3, pc}
  65              	.L6:
  66 0012 00BF     		.align	2
  67              	.L5:
  68 0014 00000000 		.word	state
  69 0018 6C000000 		.word	state+108
  70              		.cfi_endproc
  71              	.LFE63:
  73              		.section	.text.stateGetSpeedEnu_i,"ax",%progbits
  74              		.align	1
  75              		.thumb
  76              		.thumb_func
  78              	stateGetSpeedEnu_i:
  79              	.LFB79:
 642:./state.h     **** 
 643:./state.h     **** /// Get position in LLA coordinates (int).
 644:./state.h     **** static inline struct LlaCoor_i* stateGetPositionLla_i(void) {
 645:./state.h     ****   if (!bit_is_set(state.pos_status, POS_LLA_I))
 646:./state.h     ****     stateCalcPositionLla_i();
 647:./state.h     ****   return &state.lla_pos_i;
 648:./state.h     **** }
 649:./state.h     **** 
 650:./state.h     **** /// Get position in UTM coordinates (float).
 651:./state.h     **** static inline struct UtmCoor_f* stateGetPositionUtm_f(void) {
 652:./state.h     ****   if (!bit_is_set(state.pos_status, POS_UTM_F))
 653:./state.h     ****     stateCalcPositionUtm_f();
 654:./state.h     ****   return &state.utm_pos_f;
 655:./state.h     **** }
 656:./state.h     **** 
 657:./state.h     **** /// Get position in ECEF coordinates (float).
 658:./state.h     **** static inline struct EcefCoor_f* stateGetPositionEcef_f(void) {
 659:./state.h     ****   if (!bit_is_set(state.pos_status, POS_ECEF_F))
 660:./state.h     ****     stateCalcPositionEcef_f();
 661:./state.h     ****   return &state.ecef_pos_f;
 662:./state.h     **** }
 663:./state.h     **** 
 664:./state.h     **** /// Get position in local NED coordinates (float).
 665:./state.h     **** static inline struct NedCoor_f* stateGetPositionNed_f(void) {
 666:./state.h     ****   if (!bit_is_set(state.pos_status, POS_NED_F))
 667:./state.h     ****     stateCalcPositionNed_f();
 668:./state.h     ****   return &state.ned_pos_f;
 669:./state.h     **** }
 670:./state.h     **** 
 671:./state.h     **** /// Get position in local ENU coordinates (float).
 672:./state.h     **** static inline struct EnuCoor_f* stateGetPositionEnu_f(void) {
 673:./state.h     ****   if (!bit_is_set(state.pos_status, POS_ENU_F))
 674:./state.h     ****     stateCalcPositionEnu_f();
 675:./state.h     ****   return &state.enu_pos_f;
 676:./state.h     **** }
 677:./state.h     **** 
 678:./state.h     **** /// Get position in LLA coordinates (float).
 679:./state.h     **** static inline struct LlaCoor_f* stateGetPositionLla_f(void) {
 680:./state.h     ****   if (!bit_is_set(state.pos_status, POS_LLA_F))
 681:./state.h     ****     stateCalcPositionLla_f();
 682:./state.h     ****   return &state.lla_pos_f;
 683:./state.h     **** }
 684:./state.h     **** 
 685:./state.h     **** /** @}*/
 686:./state.h     **** 
 687:./state.h     **** 
 688:./state.h     **** 
 689:./state.h     **** /******************************************************************************
 690:./state.h     ****  *                                                                            *
 691:./state.h     ****  * Set and Get functions for the SPEED representations                        *
 692:./state.h     ****  *                                                                            *
 693:./state.h     ****  *****************************************************************************/
 694:./state.h     **** /** @addtogroup state_velocity
 695:./state.h     ****  *  @{ */
 696:./state.h     **** 
 697:./state.h     **** /************* declaration of transformation functions ************/
 698:./state.h     **** extern void stateCalcSpeedNed_i(void);
 699:./state.h     **** extern void stateCalcSpeedEnu_i(void);
 700:./state.h     **** extern void stateCalcSpeedEcef_i(void);
 701:./state.h     **** extern void stateCalcHorizontalSpeedNorm_i(void);
 702:./state.h     **** extern void stateCalcHorizontalSpeedDir_i(void);
 703:./state.h     **** extern void stateCalcSpeedNed_f(void);
 704:./state.h     **** extern void stateCalcSpeedEnu_f(void);
 705:./state.h     **** extern void stateCalcSpeedEcef_f(void);
 706:./state.h     **** extern void stateCalcHorizontalSpeedNorm_f(void);
 707:./state.h     **** extern void stateCalcHorizontalSpeedDir_f(void);
 708:./state.h     **** 
 709:./state.h     **** /************************ Set functions ****************************/
 710:./state.h     **** 
 711:./state.h     **** /// Set ground speed in local NED coordinates (int).
 712:./state.h     **** static inline void stateSetSpeedNed_i(struct NedCoor_i* ned_speed) {
 713:./state.h     ****   INT32_VECT3_COPY(state.ned_speed_i, *ned_speed);
 714:./state.h     ****   /* clear bits for all speed representations and only set the new one */
 715:./state.h     ****   state.speed_status = (1 << SPEED_NED_I);
 716:./state.h     **** }
 717:./state.h     **** 
 718:./state.h     **** /// Set ground speed in local ENU coordinates (int).
 719:./state.h     **** static inline void stateSetSpeedEnu_i(struct EnuCoor_i* enu_speed) {
 720:./state.h     ****   INT32_VECT3_COPY(state.enu_speed_i, *enu_speed);
 721:./state.h     ****   /* clear bits for all speed representations and only set the new one */
 722:./state.h     ****   state.speed_status = (1 << SPEED_ENU_I);
 723:./state.h     **** }
 724:./state.h     **** 
 725:./state.h     **** /// Set ground speed in ECEF coordinates (int).
 726:./state.h     **** static inline void stateSetSpeedEcef_i(struct EcefCoor_i* ecef_speed) {
 727:./state.h     ****   INT32_VECT3_COPY(state.ecef_speed_i, *ecef_speed);
 728:./state.h     ****   /* clear bits for all speed representations and only set the new one */
 729:./state.h     ****   state.speed_status = (1 << SPEED_ECEF_I);
 730:./state.h     **** }
 731:./state.h     **** 
 732:./state.h     **** /// Set multiple speed coordinates (int).
 733:./state.h     **** static inline void stateSetSpeed_i(
 734:./state.h     ****     struct EcefCoor_i* ecef_speed,
 735:./state.h     ****     struct NedCoor_i* ned_speed,
 736:./state.h     ****     struct EnuCoor_i* enu_speed) {
 737:./state.h     ****   /* clear all status bit */
 738:./state.h     ****   state.speed_status = 0;
 739:./state.h     ****   if (ecef_speed != NULL) {
 740:./state.h     ****     INT32_VECT3_COPY(state.ecef_speed_i, *ecef_speed);
 741:./state.h     ****     state.speed_status |= (1 << SPEED_ECEF_I);
 742:./state.h     ****   }
 743:./state.h     ****   if (ned_speed != NULL) {
 744:./state.h     ****     INT32_VECT3_COPY(state.ned_speed_i, *ned_speed);
 745:./state.h     ****     state.speed_status |= (1 << SPEED_NED_I);
 746:./state.h     ****   }
 747:./state.h     ****   if (enu_speed != NULL) {
 748:./state.h     ****     INT32_VECT3_COPY(state.enu_speed_i, *enu_speed);
 749:./state.h     ****     state.speed_status |= (1 << SPEED_ENU_I);
 750:./state.h     ****   }
 751:./state.h     **** }
 752:./state.h     **** 
 753:./state.h     **** /// Set ground speed in local NED coordinates (float).
 754:./state.h     **** static inline void stateSetSpeedNed_f(struct NedCoor_f* ned_speed) {
 755:./state.h     ****   VECT3_COPY(state.ned_speed_f, *ned_speed);
 756:./state.h     ****   /* clear bits for all speed representations and only set the new one */
 757:./state.h     ****   state.speed_status = (1 << SPEED_NED_F);
 758:./state.h     **** }
 759:./state.h     **** 
 760:./state.h     **** /// Set ground speed in local ENU coordinates (float).
 761:./state.h     **** static inline void stateSetSpeedEnu_f(struct EnuCoor_f* enu_speed) {
 762:./state.h     ****   VECT3_COPY(state.enu_speed_f, *enu_speed);
 763:./state.h     ****   /* clear bits for all speed representations and only set the new one */
 764:./state.h     ****   state.speed_status = (1 << SPEED_ENU_F);
 765:./state.h     **** }
 766:./state.h     **** 
 767:./state.h     **** /// Set ground speed in ECEF coordinates (float).
 768:./state.h     **** static inline void stateSetSpeedEcef_f(struct EcefCoor_f* ecef_speed) {
 769:./state.h     ****   VECT3_COPY(state.ecef_speed_f, *ecef_speed);
 770:./state.h     ****   /* clear bits for all speed representations and only set the new one */
 771:./state.h     ****   state.speed_status = (1 << SPEED_ECEF_F);
 772:./state.h     **** }
 773:./state.h     **** 
 774:./state.h     **** /// Set multiple speed coordinates (float).
 775:./state.h     **** static inline void stateSetSpeed_f(
 776:./state.h     ****     struct EcefCoor_f* ecef_speed,
 777:./state.h     ****     struct NedCoor_f* ned_speed,
 778:./state.h     ****     struct EnuCoor_f* enu_speed) {
 779:./state.h     ****   /* clear all status bit */
 780:./state.h     ****   state.speed_status = 0;
 781:./state.h     ****   if (ecef_speed != NULL) {
 782:./state.h     ****     VECT3_COPY(state.ecef_speed_f, *ecef_speed);
 783:./state.h     ****     state.speed_status |= (1 << SPEED_ECEF_F);
 784:./state.h     ****   }
 785:./state.h     ****   if (ned_speed != NULL) {
 786:./state.h     ****     VECT3_COPY(state.ned_speed_f, *ned_speed);
 787:./state.h     ****     state.speed_status |= (1 << SPEED_NED_F);
 788:./state.h     ****   }
 789:./state.h     ****   if (enu_speed != NULL) {
 790:./state.h     ****     VECT3_COPY(state.enu_speed_f, *enu_speed);
 791:./state.h     ****     state.speed_status |= (1 << SPEED_ENU_F);
 792:./state.h     ****   }
 793:./state.h     **** }
 794:./state.h     **** 
 795:./state.h     **** /************************ Get functions ****************************/
 796:./state.h     **** 
 797:./state.h     **** /// Get ground speed in local NED coordinates (int).
 798:./state.h     **** static inline struct NedCoor_i* stateGetSpeedNed_i(void) {
 799:./state.h     ****   if (!bit_is_set(state.speed_status, SPEED_NED_I))
 800:./state.h     ****     stateCalcSpeedNed_i();
 801:./state.h     ****   return &state.ned_speed_i;
 802:./state.h     **** }
 803:./state.h     **** 
 804:./state.h     **** /// Get ground speed in local ENU coordinates (int).
 805:./state.h     **** static inline struct EnuCoor_i* stateGetSpeedEnu_i(void) {
  80              		.loc 2 805 0
  81              		.cfi_startproc
  82              		@ args = 0, pretend = 0, frame = 0
  83              		@ frame_needed = 0, uses_anonymous_args = 0
  84 0000 08B5     		push	{r3, lr}
  85              	.LCFI1:
  86              		.cfi_def_cfa_offset 8
  87              		.cfi_offset 3, -8
  88              		.cfi_offset 14, -4
 806:./state.h     ****   if (!bit_is_set(state.speed_status, SPEED_ENU_I))
  89              		.loc 2 806 0
  90 0002 044B     		ldr	r3, .L9
  91 0004 B3F81401 		ldrh	r0, [r3, #276]
  92 0008 4207     		lsls	r2, r0, #29
  93 000a 01D4     		bmi	.L8
 807:./state.h     ****     stateCalcSpeedEnu_i();
  94              		.loc 2 807 0
  95 000c FFF7FEFF 		bl	stateCalcSpeedEnu_i
  96              	.LVL1:
  97              	.L8:
 808:./state.h     ****   return &state.enu_speed_i;
 809:./state.h     **** }
  98              		.loc 2 809 0
  99 0010 0148     		ldr	r0, .L9+4
 100 0012 08BD     		pop	{r3, pc}
 101              	.L10:
 102              		.align	2
 103              	.L9:
 104 0014 00000000 		.word	state
 105 0018 30010000 		.word	state+304
 106              		.cfi_endproc
 107              	.LFE79:
 109              		.section	.text.on_baro_abs_event,"ax",%progbits
 110              		.align	1
 111              		.thumb
 112              		.thumb_func
 114              	on_baro_abs_event:
 115              	.LFB147:
 291:firmwares/rotorcraft/main.c **** static inline void on_baro_abs_event( void ) {
 116              		.loc 1 291 0
 117              		.cfi_startproc
 118              		@ args = 0, pretend = 0, frame = 0
 119              		@ frame_needed = 0, uses_anonymous_args = 0
 120              		@ link register save eliminated.
 296:firmwares/rotorcraft/main.c **** }
 121              		.loc 1 296 0
 292:firmwares/rotorcraft/main.c ****   ins_update_baro();
 122              		.loc 1 292 0
 123 0000 FFF7FEBF 		b	ins_update_baro
 124              	.LVL2:
 125              		.cfi_endproc
 126              	.LFE147:
 128              		.section	.text.on_mag_event,"ax",%progbits
 129              		.align	1
 130              		.thumb
 131              		.thumb_func
 133              	on_mag_event:
 134              	.LFB150:
 299:firmwares/rotorcraft/main.c **** 
 300:firmwares/rotorcraft/main.c **** }
 301:firmwares/rotorcraft/main.c **** 
 302:firmwares/rotorcraft/main.c **** static inline void on_gps_event(void) {
 303:firmwares/rotorcraft/main.c ****   ins_update_gps();
 304:firmwares/rotorcraft/main.c **** #ifdef USE_VEHICLE_INTERFACE
 305:firmwares/rotorcraft/main.c ****   if (gps.fix == GPS_FIX_3D)
 306:firmwares/rotorcraft/main.c ****     vi_notify_gps_available();
 307:firmwares/rotorcraft/main.c **** #endif
 308:firmwares/rotorcraft/main.c **** }
 309:firmwares/rotorcraft/main.c **** 
 310:firmwares/rotorcraft/main.c **** static inline void on_mag_event(void) {
 135              		.loc 1 310 0
 136              		.cfi_startproc
 137              		@ args = 0, pretend = 0, frame = 0
 138              		@ frame_needed = 0, uses_anonymous_args = 0
 139              		@ link register save eliminated.
 311:firmwares/rotorcraft/main.c ****   ImuScaleMag(imu);
 140              		.loc 1 311 0
 141 0000 144B     		ldr	r3, .L14
 142 0002 42F6BD40 		movw	r0, #11453
 143 0006 996F     		ldr	r1, [r3, #120]
 144 0008 5A6D     		ldr	r2, [r3, #84]
 145 000a 8A1A     		subs	r2, r1, r2
 146 000c 4243     		muls	r2, r0, r2
 147 000e 4FF42461 		mov	r1, #2624
 148 0012 92FBF1F2 		sdiv	r2, r2, r1
 149 0016 D86F     		ldr	r0, [r3, #124]
 150 0018 996D     		ldr	r1, [r3, #88]
 151 001a 9A61     		str	r2, [r3, #24]
 152 001c 421A     		subs	r2, r0, r1
 153 001e 4DF69E00 		movw	r0, #55454
 154 0022 4243     		muls	r2, r0, r2
 155 0024 43F23F21 		movw	r1, #12863
 156 0028 92FBF1F2 		sdiv	r2, r2, r1
 157 002c D3F88000 		ldr	r0, [r3, #128]
 158 0030 D96D     		ldr	r1, [r3, #92]
 159 0032 DA61     		str	r2, [r3, #28]
 160 0034 421A     		subs	r2, r0, r1
 161 0036 4AF24750 		movw	r0, #42311
 162 003a 4243     		muls	r2, r0, r2
 163 003c 42F29731 		movw	r1, #9111
 164 0040 92FBF1F2 		sdiv	r2, r2, r1
 165 0044 1A62     		str	r2, [r3, #32]
 312:firmwares/rotorcraft/main.c **** 
 313:firmwares/rotorcraft/main.c **** #if USE_MAGNETOMETER
 314:firmwares/rotorcraft/main.c ****   if (ahrs.status == AHRS_RUNNING) {
 166              		.loc 1 314 0
 167 0046 044B     		ldr	r3, .L14+4
 168 0048 1878     		ldrb	r0, [r3, #0]	@ zero_extendqisi2
 169 004a 0128     		cmp	r0, #1
 170 004c 01D1     		bne	.L12
 315:firmwares/rotorcraft/main.c ****     ahrs_update_mag();
 316:firmwares/rotorcraft/main.c ****   }
 317:firmwares/rotorcraft/main.c **** #endif
 318:firmwares/rotorcraft/main.c **** 
 319:firmwares/rotorcraft/main.c **** #ifdef USE_VEHICLE_INTERFACE
 320:firmwares/rotorcraft/main.c ****   vi_notify_mag_available();
 321:firmwares/rotorcraft/main.c **** #endif
 322:firmwares/rotorcraft/main.c **** }
 171              		.loc 1 322 0
 315:firmwares/rotorcraft/main.c ****     ahrs_update_mag();
 172              		.loc 1 315 0
 173 004e FFF7FEBF 		b	ahrs_update_mag
 174              	.LVL3:
 175              	.L12:
 176 0052 7047     		bx	lr
 177              	.L15:
 178              		.align	2
 179              	.L14:
 180 0054 00000000 		.word	imu
 181 0058 00000000 		.word	ahrs
 182              		.cfi_endproc
 183              	.LFE150:
 185              		.section	.text.on_accel_event,"ax",%progbits
 186              		.align	1
 187              		.thumb
 188              		.thumb_func
 190              	on_accel_event:
 191              	.LFB145:
 262:firmwares/rotorcraft/main.c **** static inline void on_accel_event( void ) {
 192              		.loc 1 262 0
 193              		.cfi_startproc
 194              		@ args = 0, pretend = 0, frame = 0
 195              		@ frame_needed = 0, uses_anonymous_args = 0
 263:firmwares/rotorcraft/main.c ****   ImuScaleAccel(imu);
 196              		.loc 1 263 0
 197 0000 144B     		ldr	r3, .L18
 262:firmwares/rotorcraft/main.c **** static inline void on_accel_event( void ) {
 198              		.loc 1 262 0
 199 0002 10B5     		push	{r4, lr}
 200              	.LCFI2:
 201              		.cfi_def_cfa_offset 8
 202              		.cfi_offset 4, -8
 203              		.cfi_offset 14, -4
 263:firmwares/rotorcraft/main.c ****   ImuScaleAccel(imu);
 204              		.loc 1 263 0
 205 0004 DA68     		ldr	r2, [r3, #12]
 206 0006 1869     		ldr	r0, [r3, #16]
 207 0008 5969     		ldr	r1, [r3, #20]
 208 000a DC6E     		ldr	r4, [r3, #108]
 209 000c 1A63     		str	r2, [r3, #48]
 210 000e 9A6C     		ldr	r2, [r3, #72]
 211 0010 5863     		str	r0, [r3, #52]
 212 0012 9963     		str	r1, [r3, #56]
 213 0014 A01A     		subs	r0, r4, r2
 214 0016 41F22931 		movw	r1, #4905
 215 001a 4843     		muls	r0, r1, r0
 216 001c 4FF47A72 		mov	r2, #1000
 217 0020 90FBF2F4 		sdiv	r4, r0, r2
 218 0024 DC60     		str	r4, [r3, #12]
 219 0026 D86C     		ldr	r0, [r3, #76]
 220 0028 1C6F     		ldr	r4, [r3, #112]
 221 002a 241A     		subs	r4, r4, r0
 222 002c 4C43     		muls	r4, r1, r4
 223 002e 94FBF2F0 		sdiv	r0, r4, r2
 224 0032 1861     		str	r0, [r3, #16]
 225 0034 5C6F     		ldr	r4, [r3, #116]
 226 0036 186D     		ldr	r0, [r3, #80]
 227 0038 201A     		subs	r0, r4, r0
 228 003a 4143     		muls	r1, r0, r1
 229 003c 91FBF2F1 		sdiv	r1, r1, r2
 230 0040 5961     		str	r1, [r3, #20]
 265:firmwares/rotorcraft/main.c ****   if (ahrs.status != AHRS_UNINIT) {
 231              		.loc 1 265 0
 232 0042 054B     		ldr	r3, .L18+4
 233 0044 1A78     		ldrb	r2, [r3, #0]	@ zero_extendqisi2
 234 0046 1AB1     		cbz	r2, .L16
 268:firmwares/rotorcraft/main.c **** }
 235              		.loc 1 268 0
 236 0048 BDE81040 		pop	{r4, lr}
 266:firmwares/rotorcraft/main.c ****     ahrs_update_accel();
 237              		.loc 1 266 0
 238 004c FFF7FEBF 		b	ahrs_update_accel
 239              	.LVL4:
 240              	.L16:
 241 0050 10BD     		pop	{r4, pc}
 242              	.L19:
 243 0052 00BF     		.align	2
 244              	.L18:
 245 0054 00000000 		.word	imu
 246 0058 00000000 		.word	ahrs
 247              		.cfi_endproc
 248              	.LFE145:
 250              		.section	.text.on_gyro_event,"ax",%progbits
 251              		.align	1
 252              		.thumb
 253              		.thumb_func
 255              	on_gyro_event:
 256              	.LFB146:
 270:firmwares/rotorcraft/main.c **** static inline void on_gyro_event( void ) {
 257              		.loc 1 270 0
 258              		.cfi_startproc
 259              		@ args = 0, pretend = 0, frame = 0
 260              		@ frame_needed = 0, uses_anonymous_args = 0
 272:firmwares/rotorcraft/main.c ****   ImuScaleGyro(imu);
 261              		.loc 1 272 0
 262 0000 1A4B     		ldr	r3, .L23
 270:firmwares/rotorcraft/main.c **** static inline void on_gyro_event( void ) {
 263              		.loc 1 270 0
 264 0002 10B5     		push	{r4, lr}
 265              	.LCFI3:
 266              		.cfi_def_cfa_offset 8
 267              		.cfi_offset 4, -8
 268              		.cfi_offset 14, -4
 272:firmwares/rotorcraft/main.c ****   ImuScaleGyro(imu);
 269              		.loc 1 272 0
 270 0004 1A68     		ldr	r2, [r3, #0]
 271 0006 5868     		ldr	r0, [r3, #4]
 272 0008 9968     		ldr	r1, [r3, #8]
 273 000a 1C6E     		ldr	r4, [r3, #96]
 274 000c 5A62     		str	r2, [r3, #36]
 275 000e DA6B     		ldr	r2, [r3, #60]
 276 0010 9862     		str	r0, [r3, #40]
 277 0012 D962     		str	r1, [r3, #44]
 278 0014 A01A     		subs	r0, r4, r2
 279 0016 41F20711 		movw	r1, #4359
 280 001a 4843     		muls	r0, r1, r0
 281 001c 4FF47A72 		mov	r2, #1000
 282 0020 90FBF2F4 		sdiv	r4, r0, r2
 283 0024 1C60     		str	r4, [r3, #0]
 284 0026 186C     		ldr	r0, [r3, #64]
 285 0028 5C6E     		ldr	r4, [r3, #100]
 286 002a 241A     		subs	r4, r4, r0
 287 002c 4C43     		muls	r4, r1, r4
 288 002e 94FBF2F0 		sdiv	r0, r4, r2
 289 0032 5860     		str	r0, [r3, #4]
 290 0034 9C6E     		ldr	r4, [r3, #104]
 291 0036 586C     		ldr	r0, [r3, #68]
 292 0038 201A     		subs	r0, r4, r0
 293 003a 4143     		muls	r1, r0, r1
 294 003c 91FBF2F1 		sdiv	r1, r1, r2
 295 0040 9960     		str	r1, [r3, #8]
 274:firmwares/rotorcraft/main.c ****   if (ahrs.status == AHRS_UNINIT) {
 296              		.loc 1 274 0
 297 0042 0B4B     		ldr	r3, .L23+4
 298 0044 1A78     		ldrb	r2, [r3, #0]	@ zero_extendqisi2
 299 0046 52B9     		cbnz	r2, .L21
 300              	.LBB19:
 301              	.LBB20:
 275:firmwares/rotorcraft/main.c ****     ahrs_aligner_run();
 302              		.loc 1 275 0
 303 0048 FFF7FEFF 		bl	ahrs_aligner_run
 304              	.LVL5:
 276:firmwares/rotorcraft/main.c ****     if (ahrs_aligner.status == AHRS_ALIGNER_LOCKED)
 305              		.loc 1 276 0
 306 004c 0948     		ldr	r0, .L23+8
 307 004e 90F82C10 		ldrb	r1, [r0, #44]	@ zero_extendqisi2
 308 0052 0229     		cmp	r1, #2
 309 0054 09D1     		bne	.L20
 310              	.LBE20:
 311              	.LBE19:
 289:firmwares/rotorcraft/main.c **** }
 312              		.loc 1 289 0
 313 0056 BDE81040 		pop	{r4, lr}
 314              	.LBB22:
 315              	.LBB21:
 277:firmwares/rotorcraft/main.c ****       ahrs_align();
 316              		.loc 1 277 0
 317 005a FFF7FEBF 		b	ahrs_align
 318              	.LVL6:
 319              	.L21:
 320              	.LBE21:
 321              	.LBE22:
 280:firmwares/rotorcraft/main.c ****     ahrs_propagate();
 322              		.loc 1 280 0
 323 005e FFF7FEFF 		bl	ahrs_propagate
 324              	.LVL7:
 289:firmwares/rotorcraft/main.c **** }
 325              		.loc 1 289 0
 326 0062 BDE81040 		pop	{r4, lr}
 284:firmwares/rotorcraft/main.c ****     ins_propagate();
 327              		.loc 1 284 0
 328 0066 FFF7FEBF 		b	ins_propagate
 329              	.LVL8:
 330              	.L20:
 331 006a 10BD     		pop	{r4, pc}
 332              	.L24:
 333              		.align	2
 334              	.L23:
 335 006c 00000000 		.word	imu
 336 0070 00000000 		.word	ahrs
 337 0074 00000000 		.word	ahrs_aligner
 338              		.cfi_endproc
 339              	.LFE146:
 341              		.section	.text.stateGetNedToBodyEulers_i,"ax",%progbits
 342              		.align	1
 343              		.thumb
 344              		.thumb_func
 346              	stateGetNedToBodyEulers_i:
 347              	.LFB106:
 810:./state.h     **** 
 811:./state.h     **** /// Get ground speed in ECEF coordinates (int).
 812:./state.h     **** static inline struct EcefCoor_i* stateGetSpeedEcef_i(void) {
 813:./state.h     ****   if (!bit_is_set(state.speed_status, SPEED_ECEF_I))
 814:./state.h     ****     stateCalcSpeedEcef_i();
 815:./state.h     ****   return &state.ecef_speed_i;
 816:./state.h     **** }
 817:./state.h     **** 
 818:./state.h     **** /// Get norm of horizontal ground speed (int).
 819:./state.h     **** static inline int32_t* stateGetHorizontalSpeedNorm_i(void) {
 820:./state.h     ****   if (!bit_is_set(state.speed_status, SPEED_HNORM_I))
 821:./state.h     ****     stateCalcHorizontalSpeedNorm_i();
 822:./state.h     ****   return &state.h_speed_norm_i;
 823:./state.h     **** }
 824:./state.h     **** 
 825:./state.h     **** /// Get dir of horizontal ground speed (int).
 826:./state.h     **** static inline int32_t* stateGetHorizontalSpeedDir_i(void) {
 827:./state.h     ****   if (!bit_is_set(state.speed_status, SPEED_HDIR_I))
 828:./state.h     ****     stateCalcHorizontalSpeedDir_i();
 829:./state.h     ****   return &state.h_speed_dir_i;
 830:./state.h     **** }
 831:./state.h     **** 
 832:./state.h     **** /// Get ground speed in local NED coordinates (float).
 833:./state.h     **** static inline struct NedCoor_f* stateGetSpeedNed_f(void) {
 834:./state.h     ****   if (!bit_is_set(state.speed_status, SPEED_NED_F))
 835:./state.h     ****     stateCalcSpeedNed_f();
 836:./state.h     ****   return &state.ned_speed_f;
 837:./state.h     **** }
 838:./state.h     **** 
 839:./state.h     **** /// Get ground speed in local ENU coordinates (float).
 840:./state.h     **** static inline struct EnuCoor_f* stateGetSpeedEnu_f(void) {
 841:./state.h     ****   if (!bit_is_set(state.speed_status, SPEED_ENU_F))
 842:./state.h     ****     stateCalcSpeedEnu_f();
 843:./state.h     ****   return &state.enu_speed_f;
 844:./state.h     **** }
 845:./state.h     **** 
 846:./state.h     **** /// Get ground speed in ECEF coordinates (float).
 847:./state.h     **** static inline struct EcefCoor_f* stateGetSpeedEcef_f(void) {
 848:./state.h     ****   if (!bit_is_set(state.speed_status, SPEED_ECEF_F))
 849:./state.h     ****     stateCalcSpeedEcef_f();
 850:./state.h     ****   return &state.ecef_speed_f;
 851:./state.h     **** }
 852:./state.h     **** 
 853:./state.h     **** /// Get norm of horizontal ground speed (float).
 854:./state.h     **** static inline float* stateGetHorizontalSpeedNorm_f(void) {
 855:./state.h     ****   if (!bit_is_set(state.speed_status, SPEED_HNORM_F))
 856:./state.h     ****     stateCalcHorizontalSpeedNorm_f();
 857:./state.h     ****   return &state.h_speed_norm_f;
 858:./state.h     **** }
 859:./state.h     **** 
 860:./state.h     **** /// Get dir of horizontal ground speed (float).
 861:./state.h     **** static inline float* stateGetHorizontalSpeedDir_f(void) {
 862:./state.h     ****   if (!bit_is_set(state.speed_status, SPEED_HDIR_F))
 863:./state.h     ****     stateCalcHorizontalSpeedDir_f();
 864:./state.h     ****   return &state.h_speed_dir_f;
 865:./state.h     **** }
 866:./state.h     **** /** @}*/
 867:./state.h     **** 
 868:./state.h     **** 
 869:./state.h     **** 
 870:./state.h     **** /******************************************************************************
 871:./state.h     ****  *                                                                            *
 872:./state.h     ****  * Set and Get functions for the ACCELERATION representations                 *
 873:./state.h     ****  *                                                                            *
 874:./state.h     ****  *****************************************************************************/
 875:./state.h     **** /** @addtogroup state_acceleration
 876:./state.h     ****  *  @{ */
 877:./state.h     **** 
 878:./state.h     **** /************* declaration of transformation functions ************/
 879:./state.h     **** extern void stateCalcAccelNed_i(void);
 880:./state.h     **** extern void stateCalcAccelEcef_i(void);
 881:./state.h     **** extern void stateCalcAccelNed_f(void);
 882:./state.h     **** extern void stateCalcAccelEcef_f(void);
 883:./state.h     **** 
 884:./state.h     **** /*********************** validity test functions ******************/
 885:./state.h     **** 
 886:./state.h     **** /// Test if accelerations are valid.
 887:./state.h     **** static inline bool_t stateIsAccelValid(void) {
 888:./state.h     ****   return (state.accel_status);
 889:./state.h     **** }
 890:./state.h     **** 
 891:./state.h     **** /************************ Set functions ****************************/
 892:./state.h     **** 
 893:./state.h     **** /// Set acceleration in NED coordinates (int).
 894:./state.h     **** static inline void stateSetAccelNed_i(struct NedCoor_i* ned_accel) {
 895:./state.h     ****   INT32_VECT3_COPY(state.ned_accel_i, *ned_accel);
 896:./state.h     ****   /* clear bits for all accel representations and only set the new one */
 897:./state.h     ****   state.accel_status = (1 << ACCEL_NED_I);
 898:./state.h     **** }
 899:./state.h     **** 
 900:./state.h     **** /// Set acceleration in ECEF coordinates (int).
 901:./state.h     **** static inline void stateSetAccelEcef_i(struct EcefCoor_i* ecef_accel) {
 902:./state.h     ****   INT32_VECT3_COPY(state.ecef_accel_i, *ecef_accel);
 903:./state.h     ****   /* clear bits for all accel representations and only set the new one */
 904:./state.h     ****   state.accel_status = (1 << ACCEL_ECEF_I);
 905:./state.h     **** }
 906:./state.h     **** 
 907:./state.h     **** /// Set acceleration in NED coordinates (float).
 908:./state.h     **** static inline void stateSetAccelNed_f(struct NedCoor_f* ned_accel) {
 909:./state.h     ****   VECT3_COPY(state.ned_accel_f, *ned_accel);
 910:./state.h     ****   /* clear bits for all accel representations and only set the new one */
 911:./state.h     ****   state.accel_status = (1 << ACCEL_NED_F);
 912:./state.h     **** }
 913:./state.h     **** 
 914:./state.h     **** /// Set acceleration in ECEF coordinates (float).
 915:./state.h     **** static inline void stateSetAccelEcef_f(struct EcefCoor_f* ecef_accel) {
 916:./state.h     ****   VECT3_COPY(state.ecef_accel_f, *ecef_accel);
 917:./state.h     ****   /* clear bits for all accel representations and only set the new one */
 918:./state.h     ****   state.accel_status = (1 << ACCEL_ECEF_F);
 919:./state.h     **** }
 920:./state.h     **** 
 921:./state.h     **** /************************ Get functions ****************************/
 922:./state.h     **** 
 923:./state.h     **** /// Get acceleration in NED coordinates (int).
 924:./state.h     **** static inline struct NedCoor_i* stateGetAccelNed_i(void) {
 925:./state.h     ****   if (!bit_is_set(state.accel_status, ACCEL_NED_I))
 926:./state.h     ****     stateCalcAccelNed_i();
 927:./state.h     ****   return &state.ned_accel_i;
 928:./state.h     **** }
 929:./state.h     **** 
 930:./state.h     **** /// Get acceleration in ECEF coordinates (int).
 931:./state.h     **** static inline struct EcefCoor_i* stateGetAccelEcef_i(void) {
 932:./state.h     ****   if (!bit_is_set(state.accel_status, ACCEL_ECEF_I))
 933:./state.h     ****     stateCalcAccelEcef_i();
 934:./state.h     ****   return &state.ecef_accel_i;
 935:./state.h     **** }
 936:./state.h     **** 
 937:./state.h     **** /// Get acceleration in NED coordinates (float).
 938:./state.h     **** static inline struct NedCoor_f* stateGetAccelNed_f(void) {
 939:./state.h     ****   if (!bit_is_set(state.accel_status, ACCEL_NED_F))
 940:./state.h     ****     stateCalcAccelNed_f();
 941:./state.h     ****   return &state.ned_accel_f;
 942:./state.h     **** }
 943:./state.h     **** 
 944:./state.h     **** /// Get acceleration in ECEF coordinates (float).
 945:./state.h     **** static inline struct EcefCoor_f* stateGetAccelEcef_f(void) {
 946:./state.h     ****   if (!bit_is_set(state.accel_status, ACCEL_ECEF_F))
 947:./state.h     ****     stateCalcAccelEcef_f();
 948:./state.h     ****   return &state.ecef_accel_f;
 949:./state.h     **** }
 950:./state.h     **** /** @}*/
 951:./state.h     **** 
 952:./state.h     **** /******************************************************************************
 953:./state.h     **** *                                                                             *
 954:./state.h     **** * Set and Get functions for the ATTITUDE representations                      *
 955:./state.h     **** * (Calls the functions in math/pprz_orientation_conversion)                   *
 956:./state.h     **** *                                                                             *
 957:./state.h     **** *****************************************************************************/
 958:./state.h     **** /** @addtogroup state_attitude
 959:./state.h     **** * @{ */
 960:./state.h     **** /*********************** validity test functions ******************/
 961:./state.h     **** 
 962:./state.h     **** /// Test if attitudes are valid.
 963:./state.h     **** static inline bool_t stateIsAttitudeValid(void) {
 964:./state.h     ****   return (orienationCheckValid(&state.ned_to_body_orientation));
 965:./state.h     **** }
 966:./state.h     **** 
 967:./state.h     **** /************************ Set functions ****************************/
 968:./state.h     **** 
 969:./state.h     **** /// Set vehicle body attitude from quaternion (int).
 970:./state.h     **** static inline void stateSetNedToBodyQuat_i(struct Int32Quat* ned_to_body_quat) {
 971:./state.h     ****   orientationSetQuat_i(&state.ned_to_body_orientation,ned_to_body_quat);
 972:./state.h     **** }
 973:./state.h     **** 
 974:./state.h     **** /// Set vehicle body attitude from rotation matrix (int).
 975:./state.h     **** static inline void stateSetNedToBodyRMat_i(struct Int32RMat* ned_to_body_rmat) {
 976:./state.h     ****   orientationSetRMat_i(&state.ned_to_body_orientation,ned_to_body_rmat);
 977:./state.h     **** }
 978:./state.h     **** 
 979:./state.h     **** /// Set vehicle body attitude from euler angles (int).
 980:./state.h     **** static inline void stateSetNedToBodyEulers_i(struct Int32Eulers* ned_to_body_eulers) {
 981:./state.h     ****   orientationSetEulers_i(&state.ned_to_body_orientation,ned_to_body_eulers);
 982:./state.h     **** }
 983:./state.h     **** 
 984:./state.h     **** /// Set vehicle body attitude from quaternion (float).
 985:./state.h     **** static inline void stateSetNedToBodyQuat_f(struct FloatQuat* ned_to_body_quat) {
 986:./state.h     ****   orientationSetQuat_f(&state.ned_to_body_orientation,ned_to_body_quat);
 987:./state.h     **** }
 988:./state.h     **** 
 989:./state.h     **** /// Set vehicle body attitude from rotation matrix (float).
 990:./state.h     **** static inline void stateSetNedToBodyRMat_f(struct FloatRMat* ned_to_body_rmat) {
 991:./state.h     ****   orientationSetRMat_f(&state.ned_to_body_orientation,ned_to_body_rmat);
 992:./state.h     **** }
 993:./state.h     **** 
 994:./state.h     **** /// Set vehicle body attitude from euler angles (float).
 995:./state.h     **** static inline void stateSetNedToBodyEulers_f(struct FloatEulers* ned_to_body_eulers) {
 996:./state.h     ****   orientationSetEulers_f(&state.ned_to_body_orientation,ned_to_body_eulers);
 997:./state.h     **** }
 998:./state.h     **** 
 999:./state.h     **** /************************ Get functions ****************************/
1000:./state.h     **** 
1001:./state.h     **** /// Get vehicle body attitude quaternion (int).
1002:./state.h     **** static inline struct Int32Quat* stateGetNedToBodyQuat_i(void) {
1003:./state.h     ****   return orientationGetQuat_i(&state.ned_to_body_orientation);
1004:./state.h     **** }
1005:./state.h     **** 
1006:./state.h     **** /// Get vehicle body attitude rotation matrix (int).
1007:./state.h     **** static inline struct Int32RMat* stateGetNedToBodyRMat_i(void) {
1008:./state.h     ****   return orientationGetRMat_i(&state.ned_to_body_orientation);
1009:./state.h     **** }
1010:./state.h     **** 
1011:./state.h     **** /// Get vehicle body attitude euler angles (int).
1012:./state.h     **** static inline struct Int32Eulers* stateGetNedToBodyEulers_i(void) {
 348              		.loc 2 1012 0
 349              		.cfi_startproc
 350              		@ args = 0, pretend = 0, frame = 0
 351              		@ frame_needed = 0, uses_anonymous_args = 0
 352              	.LVL9:
 353 0000 08B5     		push	{r3, lr}
 354              	.LCFI4:
 355              		.cfi_def_cfa_offset 8
 356              		.cfi_offset 3, -8
 357              		.cfi_offset 14, -4
 358              	.LBB25:
 359              	.LBB26:
 360              		.file 3 "./math/pprz_orientation_conversion.h"
   1:./math/pprz_orientation_conversion.h **** /*
   2:./math/pprz_orientation_conversion.h ****  * Copyright (C) 2011-2012 The Paparazzi Team
   3:./math/pprz_orientation_conversion.h ****  *
   4:./math/pprz_orientation_conversion.h ****  * This file is part of paparazzi.
   5:./math/pprz_orientation_conversion.h ****  *
   6:./math/pprz_orientation_conversion.h ****  * paparazzi is free software; you can redistribute it and/or modify
   7:./math/pprz_orientation_conversion.h ****  * it under the terms of the GNU General Public License as published by
   8:./math/pprz_orientation_conversion.h ****  * the Free Software Foundation; either version 2, or (at your option)
   9:./math/pprz_orientation_conversion.h ****  * any later version.
  10:./math/pprz_orientation_conversion.h ****  *
  11:./math/pprz_orientation_conversion.h ****  * paparazzi is distributed in the hope that it will be useful,
  12:./math/pprz_orientation_conversion.h ****  * but WITHOUT ANY WARRANTY; without even the implied warranty of
  13:./math/pprz_orientation_conversion.h ****  * MERCHANTABILITY or FITNESS FOR A PARTICULAR PURPOSE.  See the
  14:./math/pprz_orientation_conversion.h ****  * GNU General Public License for more details.
  15:./math/pprz_orientation_conversion.h ****  *
  16:./math/pprz_orientation_conversion.h ****  * You should have received a copy of the GNU General Public License
  17:./math/pprz_orientation_conversion.h ****  * along with paparazzi; see the file COPYING.  If not, see
  18:./math/pprz_orientation_conversion.h ****  * <http://www.gnu.org/licenses/>.
  19:./math/pprz_orientation_conversion.h ****  *
  20:./math/pprz_orientation_conversion.h ****  */
  21:./math/pprz_orientation_conversion.h **** 
  22:./math/pprz_orientation_conversion.h **** /**
  23:./math/pprz_orientation_conversion.h ****  * @file math/pprz_orientation_conversion.h
  24:./math/pprz_orientation_conversion.h ****  * Generic orientation representation and conversions.
  25:./math/pprz_orientation_conversion.h ****  *
  26:./math/pprz_orientation_conversion.h ****  * This file contains the functions to automatically convert between
  27:./math/pprz_orientation_conversion.h ****  * the different representations. They should normally not be used
  28:./math/pprz_orientation_conversion.h ****  * directly and instead the stateGet/Set interfaces used.
  29:./math/pprz_orientation_conversion.h ****  * Also see the @ref math_orientation_representation "Generic Orientation Representation" page.
  30:./math/pprz_orientation_conversion.h ****  *
  31:./math/pprz_orientation_conversion.h ****  * @author Felix Ruess <felix.ruess@gmail.com>
  32:./math/pprz_orientation_conversion.h ****  */
  33:./math/pprz_orientation_conversion.h **** 
  34:./math/pprz_orientation_conversion.h **** /**
  35:./math/pprz_orientation_conversion.h ****  * @addtogroup math
  36:./math/pprz_orientation_conversion.h ****  * @{
  37:./math/pprz_orientation_conversion.h ****  */
  38:./math/pprz_orientation_conversion.h **** 
  39:./math/pprz_orientation_conversion.h **** /**
  40:./math/pprz_orientation_conversion.h ****  * This generic orientation representation consists of a struct, containing the 6 orientation
  41:./math/pprz_orientation_conversion.h ****  * representations, and a status variable. The bits in the status variable indicate  which
  42:./math/pprz_orientation_conversion.h ****  * representations of the orientation are up-to-date.
  43:./math/pprz_orientation_conversion.h ****  *
  44:./math/pprz_orientation_conversion.h ****  * When a getter is used to get a certain representation, the status bit is checked to see if
  45:./math/pprz_orientation_conversion.h ****  * the current value is already available in the desired orientation representation.
  46:./math/pprz_orientation_conversion.h ****  * If the desired representation is not available, it will be calculated.
  47:./math/pprz_orientation_conversion.h ****  *
  48:./math/pprz_orientation_conversion.h ****  * When a setter is used to set a representation, all status bits are cleared, and only the
  49:./math/pprz_orientation_conversion.h ****  * status bit for the set representation is set to one.
  50:./math/pprz_orientation_conversion.h ****  */
  51:./math/pprz_orientation_conversion.h **** 
  52:./math/pprz_orientation_conversion.h **** /**
  53:./math/pprz_orientation_conversion.h ****  * @defgroup math_orientation_representation Generic Orientation Representations
  54:./math/pprz_orientation_conversion.h ****  * @{
  55:./math/pprz_orientation_conversion.h ****  */
  56:./math/pprz_orientation_conversion.h **** 
  57:./math/pprz_orientation_conversion.h **** #ifndef PPRZ_ORIENTATION_CONVERSION_H
  58:./math/pprz_orientation_conversion.h **** #define PPRZ_ORIENTATION_CONVERSION_H
  59:./math/pprz_orientation_conversion.h **** 
  60:./math/pprz_orientation_conversion.h **** #include "math/pprz_algebra_int.h"
  61:./math/pprz_orientation_conversion.h **** #include "math/pprz_algebra_float.h"
  62:./math/pprz_orientation_conversion.h **** 
  63:./math/pprz_orientation_conversion.h **** #include "std.h"
  64:./math/pprz_orientation_conversion.h **** 
  65:./math/pprz_orientation_conversion.h **** 
  66:./math/pprz_orientation_conversion.h **** #define ORREP_QUAT_I  0  ///< Quaternion (BFP int)
  67:./math/pprz_orientation_conversion.h **** #define ORREP_EULER_I 1  ///< zyx Euler (BFP int)
  68:./math/pprz_orientation_conversion.h **** #define ORREP_RMAT_I  2  ///< Rotation Matrix (BFP int)
  69:./math/pprz_orientation_conversion.h **** #define ORREP_QUAT_F  3  ///< Quaternion (float)
  70:./math/pprz_orientation_conversion.h **** #define ORREP_EULER_F 4  ///< zyx Euler (float)
  71:./math/pprz_orientation_conversion.h **** #define ORREP_RMAT_F  5  ///< Rotation Matrix (float)
  72:./math/pprz_orientation_conversion.h **** 
  73:./math/pprz_orientation_conversion.h **** /*
  74:./math/pprz_orientation_conversion.h ****  * @brief Struct with euler/rmat/quaternion orientation representations in BFP int and float
  75:./math/pprz_orientation_conversion.h ****  */
  76:./math/pprz_orientation_conversion.h **** struct OrientationReps {
  77:./math/pprz_orientation_conversion.h ****   /**
  78:./math/pprz_orientation_conversion.h ****    * Holds the status bits for all orientation representations.
  79:./math/pprz_orientation_conversion.h ****    * When the corresponding bit is set, the representation
  80:./math/pprz_orientation_conversion.h ****    * is already computed.
  81:./math/pprz_orientation_conversion.h ****    */
  82:./math/pprz_orientation_conversion.h ****   uint8_t status;
  83:./math/pprz_orientation_conversion.h **** 
  84:./math/pprz_orientation_conversion.h ****   /**
  85:./math/pprz_orientation_conversion.h ****    * Orientation quaternion.
  86:./math/pprz_orientation_conversion.h ****    * Units: #INT32_QUAT_FRAC
  87:./math/pprz_orientation_conversion.h ****    */
  88:./math/pprz_orientation_conversion.h ****   struct Int32Quat quat_i;
  89:./math/pprz_orientation_conversion.h **** 
  90:./math/pprz_orientation_conversion.h ****   /**
  91:./math/pprz_orientation_conversion.h ****    * Orientation in zyx euler angles.
  92:./math/pprz_orientation_conversion.h ****    * Units: rad in BFP with #INT32_ANGLE_FRAC
  93:./math/pprz_orientation_conversion.h ****    */
  94:./math/pprz_orientation_conversion.h ****   struct Int32Eulers eulers_i;
  95:./math/pprz_orientation_conversion.h **** 
  96:./math/pprz_orientation_conversion.h ****   /**
  97:./math/pprz_orientation_conversion.h ****    * Orientation rotation matrix.
  98:./math/pprz_orientation_conversion.h ****    * Units: rad in BFP with #INT32_TRIG_FRAC
  99:./math/pprz_orientation_conversion.h ****    */
 100:./math/pprz_orientation_conversion.h ****   struct Int32RMat rmat_i;
 101:./math/pprz_orientation_conversion.h **** 
 102:./math/pprz_orientation_conversion.h ****   /**
 103:./math/pprz_orientation_conversion.h ****    * Orientation as quaternion.
 104:./math/pprz_orientation_conversion.h ****    * Units: unit length quaternion
 105:./math/pprz_orientation_conversion.h ****    */
 106:./math/pprz_orientation_conversion.h ****   struct FloatQuat quat_f;
 107:./math/pprz_orientation_conversion.h **** 
 108:./math/pprz_orientation_conversion.h ****   /**
 109:./math/pprz_orientation_conversion.h ****    * Orienation in zyx euler angles.
 110:./math/pprz_orientation_conversion.h ****    * Units: rad
 111:./math/pprz_orientation_conversion.h ****    */
 112:./math/pprz_orientation_conversion.h ****   struct FloatEulers eulers_f;
 113:./math/pprz_orientation_conversion.h **** 
 114:./math/pprz_orientation_conversion.h ****   /**
 115:./math/pprz_orientation_conversion.h ****    * Orientation rotation matrix.
 116:./math/pprz_orientation_conversion.h ****    * Units: rad
 117:./math/pprz_orientation_conversion.h ****    */
 118:./math/pprz_orientation_conversion.h ****   struct FloatRMat   rmat_f;
 119:./math/pprz_orientation_conversion.h **** };
 120:./math/pprz_orientation_conversion.h **** 
 121:./math/pprz_orientation_conversion.h **** /************* declaration of transformation functions ************/
 122:./math/pprz_orientation_conversion.h **** extern void orientationCalcQuat_i(struct OrientationReps* orientation);
 123:./math/pprz_orientation_conversion.h **** extern void orientationCalcRMat_i(struct OrientationReps* orientation);
 124:./math/pprz_orientation_conversion.h **** extern void orientationCalcEulers_i(struct OrientationReps* orientation);
 125:./math/pprz_orientation_conversion.h **** extern void orientationCalcQuat_f(struct OrientationReps* orientation);
 126:./math/pprz_orientation_conversion.h **** extern void orientationCalcRMat_f(struct OrientationReps* orientation);
 127:./math/pprz_orientation_conversion.h **** extern void orientationCalcEulers_f(struct OrientationReps* orientation);
 128:./math/pprz_orientation_conversion.h **** 
 129:./math/pprz_orientation_conversion.h **** 
 130:./math/pprz_orientation_conversion.h **** /*********************** validity test functions ******************/
 131:./math/pprz_orientation_conversion.h **** /// Test if orientations are valid.
 132:./math/pprz_orientation_conversion.h **** static inline bool_t orienationCheckValid(struct OrientationReps* orientation) {
 133:./math/pprz_orientation_conversion.h ****   return (orientation->status);
 134:./math/pprz_orientation_conversion.h **** }
 135:./math/pprz_orientation_conversion.h **** 
 136:./math/pprz_orientation_conversion.h **** /// Set vehicle body attitude from quaternion (int).
 137:./math/pprz_orientation_conversion.h **** static inline void orientationSetQuat_i(struct OrientationReps* orientation, struct Int32Quat* quat
 138:./math/pprz_orientation_conversion.h ****   QUAT_COPY(orientation->quat_i, *quat);
 139:./math/pprz_orientation_conversion.h ****   /* clear bits for all attitude representations and only set the new one */
 140:./math/pprz_orientation_conversion.h ****   orientation->status = (1 << ORREP_QUAT_I);
 141:./math/pprz_orientation_conversion.h **** }
 142:./math/pprz_orientation_conversion.h **** 
 143:./math/pprz_orientation_conversion.h **** /// Set vehicle body attitude from rotation matrix (int).
 144:./math/pprz_orientation_conversion.h **** static inline void orientationSetRMat_i(struct OrientationReps* orientation, struct Int32RMat* rmat
 145:./math/pprz_orientation_conversion.h ****   RMAT_COPY(orientation->rmat_i, *rmat);
 146:./math/pprz_orientation_conversion.h ****   /* clear bits for all attitude representations and only set the new one */
 147:./math/pprz_orientation_conversion.h ****   orientation->status = (1 << ORREP_RMAT_I);
 148:./math/pprz_orientation_conversion.h **** }
 149:./math/pprz_orientation_conversion.h **** 
 150:./math/pprz_orientation_conversion.h **** /// Set vehicle body attitude from euler angles (int).
 151:./math/pprz_orientation_conversion.h **** static inline void orientationSetEulers_i(struct OrientationReps* orientation, struct Int32Eulers* 
 152:./math/pprz_orientation_conversion.h ****   EULERS_COPY(orientation->eulers_i, *eulers);
 153:./math/pprz_orientation_conversion.h ****   /* clear bits for all attitude representations and only set the new one */
 154:./math/pprz_orientation_conversion.h ****   orientation->status = (1 << ORREP_EULER_I);
 155:./math/pprz_orientation_conversion.h **** }
 156:./math/pprz_orientation_conversion.h **** 
 157:./math/pprz_orientation_conversion.h **** /// Set vehicle body attitude from quaternion (float).
 158:./math/pprz_orientation_conversion.h **** static inline void orientationSetQuat_f(struct OrientationReps* orientation, struct FloatQuat* quat
 159:./math/pprz_orientation_conversion.h ****   QUAT_COPY(orientation->quat_f, *quat);
 160:./math/pprz_orientation_conversion.h ****   /* clear bits for all attitude representations and only set the new one */
 161:./math/pprz_orientation_conversion.h ****   orientation->status = (1 << ORREP_QUAT_F);
 162:./math/pprz_orientation_conversion.h **** }
 163:./math/pprz_orientation_conversion.h **** 
 164:./math/pprz_orientation_conversion.h **** /// Set vehicle body attitude from rotation matrix (float).
 165:./math/pprz_orientation_conversion.h **** static inline void orientationSetRMat_f(struct OrientationReps* orientation, struct FloatRMat* rmat
 166:./math/pprz_orientation_conversion.h ****   RMAT_COPY(orientation->rmat_f, *rmat);
 167:./math/pprz_orientation_conversion.h ****   /* clear bits for all attitude representations and only set the new one */
 168:./math/pprz_orientation_conversion.h ****   orientation->status = (1 << ORREP_RMAT_F);
 169:./math/pprz_orientation_conversion.h **** }
 170:./math/pprz_orientation_conversion.h **** 
 171:./math/pprz_orientation_conversion.h **** /// Set vehicle body attitude from euler angles (float).
 172:./math/pprz_orientation_conversion.h **** static inline void orientationSetEulers_f(struct OrientationReps* orientation, struct FloatEulers* 
 173:./math/pprz_orientation_conversion.h ****   EULERS_COPY(orientation->eulers_f, *eulers);
 174:./math/pprz_orientation_conversion.h ****   /* clear bits for all attitude representations and only set the new one */
 175:./math/pprz_orientation_conversion.h ****   orientation->status = (1 << ORREP_EULER_F);
 176:./math/pprz_orientation_conversion.h **** }
 177:./math/pprz_orientation_conversion.h **** 
 178:./math/pprz_orientation_conversion.h **** 
 179:./math/pprz_orientation_conversion.h **** /// Get vehicle body attitude quaternion (int).
 180:./math/pprz_orientation_conversion.h **** static inline struct Int32Quat* orientationGetQuat_i(struct OrientationReps* orientation) {
 181:./math/pprz_orientation_conversion.h ****   if (!bit_is_set(orientation->status, ORREP_QUAT_I))
 182:./math/pprz_orientation_conversion.h ****     orientationCalcQuat_i(orientation);
 183:./math/pprz_orientation_conversion.h ****   return &orientation->quat_i;
 184:./math/pprz_orientation_conversion.h **** }
 185:./math/pprz_orientation_conversion.h **** 
 186:./math/pprz_orientation_conversion.h **** /// Get vehicle body attitude rotation matrix (int).
 187:./math/pprz_orientation_conversion.h **** static inline struct Int32RMat* orientationGetRMat_i(struct OrientationReps* orientation) {
 188:./math/pprz_orientation_conversion.h ****   if (!bit_is_set(orientation->status, ORREP_RMAT_I))
 189:./math/pprz_orientation_conversion.h ****     orientationCalcRMat_i(orientation);
 190:./math/pprz_orientation_conversion.h ****   return &orientation->rmat_i;
 191:./math/pprz_orientation_conversion.h **** }
 192:./math/pprz_orientation_conversion.h **** 
 193:./math/pprz_orientation_conversion.h **** /// Get vehicle body attitude euler angles (int).
 194:./math/pprz_orientation_conversion.h **** static inline struct Int32Eulers* orientationGetEulers_i(struct OrientationReps* orientation) {
 195:./math/pprz_orientation_conversion.h ****   if (!bit_is_set(orientation->status, ORREP_EULER_I))
 361              		.loc 3 195 0
 362 0002 0548     		ldr	r0, .L27
 363 0004 90F8A431 		ldrb	r3, [r0, #420]	@ zero_extendqisi2
 364 0008 9907     		lsls	r1, r3, #30
 365 000a 03D4     		bmi	.L26
 196:./math/pprz_orientation_conversion.h ****     orientationCalcEulers_i(orientation);
 366              		.loc 3 196 0
 367 000c 00F5D270 		add	r0, r0, #420
 368 0010 FFF7FEFF 		bl	orientationCalcEulers_i
 369              	.LVL10:
 370              	.L26:
 371              	.LBE26:
 372              	.LBE25:
1013:./state.h     ****   return orientationGetEulers_i(&state.ned_to_body_orientation);
1014:./state.h     **** }
 373              		.loc 2 1014 0
 374 0014 0148     		ldr	r0, .L27+4
 375 0016 08BD     		pop	{r3, pc}
 376              	.L28:
 377              		.align	2
 378              	.L27:
 379 0018 00000000 		.word	state
 380 001c B8010000 		.word	state+440
 381              		.cfi_endproc
 382              	.LFE106:
 384              		.section	.text.stateGetNedToBodyQuat_i,"ax",%progbits
 385              		.align	1
 386              		.thumb
 387              		.thumb_func
 389              	stateGetNedToBodyQuat_i:
 390              	.LFB104:
1002:./state.h     **** static inline struct Int32Quat* stateGetNedToBodyQuat_i(void) {
 391              		.loc 2 1002 0
 392              		.cfi_startproc
 393              		@ args = 0, pretend = 0, frame = 0
 394              		@ frame_needed = 0, uses_anonymous_args = 0
 395              	.LVL11:
 396 0000 08B5     		push	{r3, lr}
 397              	.LCFI5:
 398              		.cfi_def_cfa_offset 8
 399              		.cfi_offset 3, -8
 400              		.cfi_offset 14, -4
 401              	.LBB29:
 402              	.LBB30:
 181:./math/pprz_orientation_conversion.h ****   if (!bit_is_set(orientation->status, ORREP_QUAT_I))
 403              		.loc 3 181 0
 404 0002 0548     		ldr	r0, .L31
 405              	.LBE30:
 406 0004 90F8A431 		ldrb	r3, [r0, #420]	@ zero_extendqisi2
 407              	.LBB31:
 408 0008 DB07     		lsls	r3, r3, #31
 409 000a 03D4     		bmi	.L30
 182:./math/pprz_orientation_conversion.h ****     orientationCalcQuat_i(orientation);
 410              		.loc 3 182 0
 411 000c 00F5D270 		add	r0, r0, #420
 412 0010 FFF7FEFF 		bl	orientationCalcQuat_i
 413              	.LVL12:
 414              	.L30:
 415              	.LBE31:
 416              	.LBE29:
1004:./state.h     **** }
 417              		.loc 2 1004 0
 418 0014 0148     		ldr	r0, .L31+4
 419 0016 08BD     		pop	{r3, pc}
 420              	.L32:
 421              		.align	2
 422              	.L31:
 423 0018 00000000 		.word	state
 424 001c A8010000 		.word	state+424
 425              		.cfi_endproc
 426              	.LFE104:
 428              		.global	__aeabi_ui2f
 429              		.global	__aeabi_i2f
 430              		.global	__aeabi_fmul
 431              		.global	__aeabi_f2iz
 432              		.section	.text.startup.main,"ax",%progbits
 433              		.align	1
 434              		.global	main
 435              		.thumb
 436              		.thumb_func
 438              	main:
 439              	.LFB138:
 113:firmwares/rotorcraft/main.c **** int main( void ) {
 440              		.loc 1 113 0
 441              		.cfi_startproc
 442              		@ Volatile: function does not return.
 443              		@ args = 0, pretend = 0, frame = 64
 444              		@ frame_needed = 0, uses_anonymous_args = 0
 445 0000 80B5     		push	{r7, lr}
 446              	.LCFI6:
 447              		.cfi_def_cfa_offset 8
 448              		.cfi_offset 7, -8
 449              		.cfi_offset 14, -4
 450 0002 90B0     		sub	sp, sp, #64
 451              	.LCFI7:
 452              		.cfi_def_cfa_offset 72
 453              	.LBB1793:
 454              	.LBB1794:
 126:firmwares/rotorcraft/main.c ****   mcu_init();
 455              		.loc 1 126 0
 456 0004 FFF7FEFF 		bl	mcu_init
 457              	.LVL13:
 128:firmwares/rotorcraft/main.c ****   electrical_init();
 458              		.loc 1 128 0
 459 0008 FFF7FEFF 		bl	electrical_init
 460              	.LVL14:
 130:firmwares/rotorcraft/main.c ****   stateInit();
 461              		.loc 1 130 0
 462 000c FFF7FEFF 		bl	stateInit
 463              	.LVL15:
 132:firmwares/rotorcraft/main.c ****   actuators_init();
 464              		.loc 1 132 0
 465 0010 FFF7FEFF 		bl	actuators_init
 466              	.LVL16:
 134:firmwares/rotorcraft/main.c ****   motor_mixing_init();
 467              		.loc 1 134 0
 468 0014 FFF7FEFF 		bl	motor_mixing_init
 469              	.LVL17:
 470              	.LBB1795:
 471              	.LBB1796:
 472              		.file 4 "./subsystems/radio_control.h"
   1:./subsystems/radio_control.h **** /*
   2:./subsystems/radio_control.h ****  * Copyright (C) 2006 Pascal Brisset, Antoine Drouin
   3:./subsystems/radio_control.h ****  *
   4:./subsystems/radio_control.h ****  * This file is part of paparazzi.
   5:./subsystems/radio_control.h ****  *
   6:./subsystems/radio_control.h ****  * paparazzi is free software; you can redistribute it and/or modify
   7:./subsystems/radio_control.h ****  * it under the terms of the GNU General Public License as published by
   8:./subsystems/radio_control.h ****  * the Free Software Foundation; either version 2, or (at your option)
   9:./subsystems/radio_control.h ****  * any later version.
  10:./subsystems/radio_control.h ****  *
  11:./subsystems/radio_control.h ****  * paparazzi is distributed in the hope that it will be useful,
  12:./subsystems/radio_control.h ****  * but WITHOUT ANY WARRANTY; without even the implied warranty of
  13:./subsystems/radio_control.h ****  * MERCHANTABILITY or FITNESS FOR A PARTICULAR PURPOSE.  See the
  14:./subsystems/radio_control.h ****  * GNU General Public License for more details.
  15:./subsystems/radio_control.h ****  *
  16:./subsystems/radio_control.h ****  * You should have received a copy of the GNU General Public License
  17:./subsystems/radio_control.h ****  * along with paparazzi; see the file COPYING.  If not, write to
  18:./subsystems/radio_control.h ****  * the Free Software Foundation, 59 Temple Place - Suite 330,
  19:./subsystems/radio_control.h ****  * Boston, MA 02111-1307, USA.
  20:./subsystems/radio_control.h ****  *
  21:./subsystems/radio_control.h ****  */
  22:./subsystems/radio_control.h **** 
  23:./subsystems/radio_control.h **** #ifndef RADIO_CONTROL_H
  24:./subsystems/radio_control.h **** #define RADIO_CONTROL_H
  25:./subsystems/radio_control.h **** 
  26:./subsystems/radio_control.h **** #if defined RADIO_CONTROL
  27:./subsystems/radio_control.h **** 
  28:./subsystems/radio_control.h **** #include "led.h"
  29:./subsystems/radio_control.h **** #include "generated/airframe.h"
  30:./subsystems/radio_control.h **** #include "paparazzi.h"
  31:./subsystems/radio_control.h **** 
  32:./subsystems/radio_control.h **** /* underlying hardware */
  33:./subsystems/radio_control.h **** #include RADIO_CONTROL_TYPE_H
  34:./subsystems/radio_control.h **** /* must be defined by underlying hardware */
  35:./subsystems/radio_control.h **** extern void radio_control_impl_init(void);
  36:./subsystems/radio_control.h **** /* RADIO_CONTROL_NB_CHANNEL has to be defined by the implementation */
  37:./subsystems/radio_control.h **** 
  38:./subsystems/radio_control.h **** /* timeouts - for now assumes 60Hz periodic */
  39:./subsystems/radio_control.h **** #define RC_AVG_PERIOD 8  /* TODO remove if IIR filter is used */
  40:./subsystems/radio_control.h **** #define RC_LOST_TIME 30  /* 500ms with a 60Hz timer */
  41:./subsystems/radio_control.h **** #define RC_REALLY_LOST_TIME 60 /* ~1s */
  42:./subsystems/radio_control.h **** /* Number of valid frames before going back to RC OK */
  43:./subsystems/radio_control.h **** #define RC_OK_CPT 15
  44:./subsystems/radio_control.h **** 
  45:./subsystems/radio_control.h **** #define RC_OK          0
  46:./subsystems/radio_control.h **** #define RC_LOST        1
  47:./subsystems/radio_control.h **** #define RC_REALLY_LOST 2
  48:./subsystems/radio_control.h **** 
  49:./subsystems/radio_control.h **** struct RadioControl {
  50:./subsystems/radio_control.h ****   uint8_t status;
  51:./subsystems/radio_control.h ****   uint8_t time_since_last_frame;
  52:./subsystems/radio_control.h ****   uint8_t radio_ok_cpt;
  53:./subsystems/radio_control.h ****   uint8_t frame_rate;
  54:./subsystems/radio_control.h ****   uint8_t frame_cpt;
  55:./subsystems/radio_control.h ****   pprz_t  values[RADIO_CONTROL_NB_CHANNEL];
  56:./subsystems/radio_control.h **** };
  57:./subsystems/radio_control.h **** 
  58:./subsystems/radio_control.h **** extern struct RadioControl radio_control;
  59:./subsystems/radio_control.h **** 
  60:./subsystems/radio_control.h **** 
  61:./subsystems/radio_control.h **** /************* INIT ******************************************************/
  62:./subsystems/radio_control.h **** static inline void radio_control_init ( void ) {
  63:./subsystems/radio_control.h ****   uint8_t i;
  64:./subsystems/radio_control.h ****   for (i=0; i<RADIO_CONTROL_NB_CHANNEL; i++)
  65:./subsystems/radio_control.h ****     radio_control.values[i] = 0;
 473              		.loc 4 65 0
 474 0018 A34B     		ldr	r3, .L1296
 475 001a 0024     		movs	r4, #0
  66:./subsystems/radio_control.h ****   radio_control.status = RC_REALLY_LOST;
  67:./subsystems/radio_control.h ****   radio_control.time_since_last_frame = RC_REALLY_LOST_TIME;
 476              		.loc 4 67 0
 477 001c 3C21     		movs	r1, #60
  66:./subsystems/radio_control.h ****   radio_control.status = RC_REALLY_LOST;
 478              		.loc 4 66 0
 479 001e 0225     		movs	r5, #2
  65:./subsystems/radio_control.h ****     radio_control.values[i] = 0;
 480              		.loc 4 65 0
 481 0020 DC80     		strh	r4, [r3, #6]	@ movhi
 482              	.LVL18:
 483 0022 1C81     		strh	r4, [r3, #8]	@ movhi
 484              	.LVL19:
 485 0024 5C81     		strh	r4, [r3, #10]	@ movhi
 486              	.LVL20:
 487 0026 9C81     		strh	r4, [r3, #12]	@ movhi
 488              	.LVL21:
 489 0028 DC81     		strh	r4, [r3, #14]	@ movhi
 490              	.LVL22:
 491 002a 1C82     		strh	r4, [r3, #16]	@ movhi
 492              	.LVL23:
 493 002c 5C82     		strh	r4, [r3, #18]	@ movhi
 494              	.LVL24:
 495 002e 9C82     		strh	r4, [r3, #20]	@ movhi
 496              	.LVL25:
  66:./subsystems/radio_control.h ****   radio_control.status = RC_REALLY_LOST;
 497              		.loc 4 66 0
 498 0030 1D70     		strb	r5, [r3, #0]
 499              		.loc 4 67 0
 500 0032 5970     		strb	r1, [r3, #1]
  68:./subsystems/radio_control.h ****   radio_control.radio_ok_cpt = 0;
 501              		.loc 4 68 0
 502 0034 9C70     		strb	r4, [r3, #2]
  69:./subsystems/radio_control.h ****   radio_control.frame_rate = 0;
 503              		.loc 4 69 0
 504 0036 DC70     		strb	r4, [r3, #3]
  70:./subsystems/radio_control.h ****   radio_control.frame_cpt = 0;
 505              		.loc 4 70 0
 506 0038 1C71     		strb	r4, [r3, #4]
  71:./subsystems/radio_control.h ****   radio_control_impl_init();
 507              		.loc 4 71 0
 508 003a FFF7FEFF 		bl	radio_control_impl_init
 509              	.LVL26:
 510              	.LBE1796:
 511              	.LBE1795:
 139:firmwares/rotorcraft/main.c ****   baro_init();
 512              		.loc 1 139 0
 513 003e FFF7FEFF 		bl	baro_init
 514              	.LVL27:
 140:firmwares/rotorcraft/main.c ****   imu_init();
 515              		.loc 1 140 0
 516 0042 FFF7FEFF 		bl	imu_init
 517              	.LVL28:
 142:firmwares/rotorcraft/main.c ****   ahrs_aligner_init();
 518              		.loc 1 142 0
 519 0046 FFF7FEFF 		bl	ahrs_aligner_init
 520              	.LVL29:
 143:firmwares/rotorcraft/main.c ****   ahrs_init();
 521              		.loc 1 143 0
 522 004a FFF7FEFF 		bl	ahrs_init
 523              	.LVL30:
 145:firmwares/rotorcraft/main.c ****   ins_init();
 524              		.loc 1 145 0
 525 004e FFF7FEFF 		bl	ins_init
 526              	.LVL31:
 148:firmwares/rotorcraft/main.c ****   gps_init();
 527              		.loc 1 148 0
 528 0052 FFF7FEFF 		bl	gps_init
 529              	.LVL32:
 151:firmwares/rotorcraft/main.c ****   autopilot_init();
 530              		.loc 1 151 0
 531 0056 FFF7FEFF 		bl	autopilot_init
 532              	.LVL33:
 533              	.LBB1797:
 534              	.LBB1798:
 535              		.file 5 "/Users/tony-yi/git/paparazzi_local/var/MYAC/generated/modules.h"
   1:/Users/tony-yi/git/paparazzi_local/var/MYAC/generated/modules.h **** /* This file has been generated from /Users/tony-yi/git/paparazzi_local/conf/airframes/quadrotor_li
   2:/Users/tony-yi/git/paparazzi_local/var/MYAC/generated/modules.h **** /* Please DO NOT EDIT */
   3:/Users/tony-yi/git/paparazzi_local/var/MYAC/generated/modules.h **** 
   4:/Users/tony-yi/git/paparazzi_local/var/MYAC/generated/modules.h **** #ifndef MODULES_H
   5:/Users/tony-yi/git/paparazzi_local/var/MYAC/generated/modules.h **** #define MODULES_H
   6:/Users/tony-yi/git/paparazzi_local/var/MYAC/generated/modules.h **** 
   7:/Users/tony-yi/git/paparazzi_local/var/MYAC/generated/modules.h **** #define MODULES_IDLE  0
   8:/Users/tony-yi/git/paparazzi_local/var/MYAC/generated/modules.h **** #define MODULES_RUN   1
   9:/Users/tony-yi/git/paparazzi_local/var/MYAC/generated/modules.h **** #define MODULES_START 2
  10:/Users/tony-yi/git/paparazzi_local/var/MYAC/generated/modules.h **** #define MODULES_STOP  3
  11:/Users/tony-yi/git/paparazzi_local/var/MYAC/generated/modules.h **** 
  12:/Users/tony-yi/git/paparazzi_local/var/MYAC/generated/modules.h **** #ifdef MODULES_C
  13:/Users/tony-yi/git/paparazzi_local/var/MYAC/generated/modules.h **** #define EXTERN_MODULES
  14:/Users/tony-yi/git/paparazzi_local/var/MYAC/generated/modules.h **** #else
  15:/Users/tony-yi/git/paparazzi_local/var/MYAC/generated/modules.h **** #define EXTERN_MODULES extern
  16:/Users/tony-yi/git/paparazzi_local/var/MYAC/generated/modules.h **** #endif
  17:/Users/tony-yi/git/paparazzi_local/var/MYAC/generated/modules.h **** #include "std.h"
  18:/Users/tony-yi/git/paparazzi_local/var/MYAC/generated/modules.h **** #include "gps/gps_ubx_ucenter.h"
  19:/Users/tony-yi/git/paparazzi_local/var/MYAC/generated/modules.h **** 
  20:/Users/tony-yi/git/paparazzi_local/var/MYAC/generated/modules.h **** #define GPS_UBX_UCENTER_PERIODIC_PERIOD 0.250000
  21:/Users/tony-yi/git/paparazzi_local/var/MYAC/generated/modules.h **** #define GPS_UBX_UCENTER_PERIODIC_FREQ 4.000000
  22:/Users/tony-yi/git/paparazzi_local/var/MYAC/generated/modules.h **** 
  23:/Users/tony-yi/git/paparazzi_local/var/MYAC/generated/modules.h **** EXTERN_MODULES uint8_t gps_ubx_gps_ubx_ucenter_periodic_status;
  24:/Users/tony-yi/git/paparazzi_local/var/MYAC/generated/modules.h **** 
  25:/Users/tony-yi/git/paparazzi_local/var/MYAC/generated/modules.h **** #ifdef MODULES_C
  26:/Users/tony-yi/git/paparazzi_local/var/MYAC/generated/modules.h **** 
  27:/Users/tony-yi/git/paparazzi_local/var/MYAC/generated/modules.h **** static inline void modules_init(void) {
  28:/Users/tony-yi/git/paparazzi_local/var/MYAC/generated/modules.h ****   gps_ubx_ucenter_init();
 536              		.loc 5 28 0
 537 005a FFF7FEFF 		bl	gps_ubx_ucenter_init
 538              	.LVL34:
  29:/Users/tony-yi/git/paparazzi_local/var/MYAC/generated/modules.h ****   gps_ubx_gps_ubx_ucenter_periodic_status = MODULES_START;
 539              		.loc 5 29 0
 540 005e 9348     		ldr	r0, .L1296+4
 541              	.LBE1798:
 542              	.LBE1797:
 168:firmwares/rotorcraft/main.c ****   main_periodic_tid = sys_time_register_timer((1./PERIODIC_FREQUENCY), NULL);
 543              		.loc 1 168 0
 544 0060 934E     		ldr	r6, .L1296+8
 545              	.LBB1800:
 546              	.LBB1799:
 547              		.loc 5 29 0
 548 0062 0570     		strb	r5, [r0, #0]
 549              	.LBE1799:
 550              	.LBE1800:
 155:firmwares/rotorcraft/main.c ****   settings_init();
 551              		.loc 1 155 0
 552 0064 FFF7FEFF 		bl	settings_init
 553              	.LVL35:
 168:firmwares/rotorcraft/main.c ****   main_periodic_tid = sys_time_register_timer((1./PERIODIC_FREQUENCY), NULL);
 554              		.loc 1 168 0
 555 0068 2146     		mov	r1, r4
 556 006a 4FF06C50 		mov	r0, #989855744
 557 006e FFF7FEFF 		bl	sys_time_register_timer
 558              	.LVL36:
 169:firmwares/rotorcraft/main.c ****   modules_tid = sys_time_register_timer(1./MODULES_FREQUENCY, NULL);
 559              		.loc 1 169 0
 560 0072 2146     		mov	r1, r4
 168:firmwares/rotorcraft/main.c ****   main_periodic_tid = sys_time_register_timer((1./PERIODIC_FREQUENCY), NULL);
 561              		.loc 1 168 0
 562 0074 3070     		strb	r0, [r6, #0]
 169:firmwares/rotorcraft/main.c ****   modules_tid = sys_time_register_timer(1./MODULES_FREQUENCY, NULL);
 563              		.loc 1 169 0
 564 0076 4FF06C50 		mov	r0, #989855744
 565 007a FFF7FEFF 		bl	sys_time_register_timer
 566              	.LVL37:
 567 007e 8D4F     		ldr	r7, .L1296+12
 170:firmwares/rotorcraft/main.c ****   radio_control_tid = sys_time_register_timer((1./60.), NULL);
 568              		.loc 1 170 0
 569 0080 2146     		mov	r1, r4
 169:firmwares/rotorcraft/main.c ****   modules_tid = sys_time_register_timer(1./MODULES_FREQUENCY, NULL);
 570              		.loc 1 169 0
 571 0082 3870     		strb	r0, [r7, #0]
 170:firmwares/rotorcraft/main.c ****   radio_control_tid = sys_time_register_timer((1./60.), NULL);
 572              		.loc 1 170 0
 573 0084 8C48     		ldr	r0, .L1296+16
 574 0086 FFF7FEFF 		bl	sys_time_register_timer
 575              	.LVL38:
 576 008a 8C4B     		ldr	r3, .L1296+20
 171:firmwares/rotorcraft/main.c ****   failsafe_tid = sys_time_register_timer(0.05, NULL);
 577              		.loc 1 171 0
 578 008c 2146     		mov	r1, r4
 170:firmwares/rotorcraft/main.c ****   radio_control_tid = sys_time_register_timer((1./60.), NULL);
 579              		.loc 1 170 0
 580 008e 1870     		strb	r0, [r3, #0]
 171:firmwares/rotorcraft/main.c ****   failsafe_tid = sys_time_register_timer(0.05, NULL);
 581              		.loc 1 171 0
 582 0090 8B48     		ldr	r0, .L1296+24
 583 0092 FFF7FEFF 		bl	sys_time_register_timer
 584              	.LVL39:
 585 0096 8B4A     		ldr	r2, .L1296+28
 172:firmwares/rotorcraft/main.c ****   electrical_tid = sys_time_register_timer(0.1, NULL);
 586              		.loc 1 172 0
 587 0098 2146     		mov	r1, r4
 171:firmwares/rotorcraft/main.c ****   failsafe_tid = sys_time_register_timer(0.05, NULL);
 588              		.loc 1 171 0
 589 009a 1070     		strb	r0, [r2, #0]
 172:firmwares/rotorcraft/main.c ****   electrical_tid = sys_time_register_timer(0.1, NULL);
 590              		.loc 1 172 0
 591 009c 8A48     		ldr	r0, .L1296+32
 592 009e FFF7FEFF 		bl	sys_time_register_timer
 593              	.LVL40:
 594 00a2 8A4D     		ldr	r5, .L1296+36
 173:firmwares/rotorcraft/main.c ****   baro_tid = sys_time_register_timer(1./BARO_PERIODIC_FREQUENCY, NULL);
 595              		.loc 1 173 0
 596 00a4 2146     		mov	r1, r4
 172:firmwares/rotorcraft/main.c ****   electrical_tid = sys_time_register_timer(0.1, NULL);
 597              		.loc 1 172 0
 598 00a6 2870     		strb	r0, [r5, #0]
 173:firmwares/rotorcraft/main.c ****   baro_tid = sys_time_register_timer(1./BARO_PERIODIC_FREQUENCY, NULL);
 599              		.loc 1 173 0
 600 00a8 8948     		ldr	r0, .L1296+40
 601 00aa FFF7FEFF 		bl	sys_time_register_timer
 602              	.LVL41:
 603 00ae 8949     		ldr	r1, .L1296+44
 604 00b0 0870     		strb	r0, [r1, #0]
 174:firmwares/rotorcraft/main.c ****   telemetry_tid = sys_time_register_timer((1./TELEMETRY_FREQUENCY), NULL);
 605              		.loc 1 174 0
 606 00b2 2146     		mov	r1, r4
 607 00b4 8048     		ldr	r0, .L1296+16
 608 00b6 FFF7FEFF 		bl	sys_time_register_timer
 609              	.LVL42:
 610 00ba 874C     		ldr	r4, .L1296+48
 611 00bc 2070     		strb	r0, [r4, #0]
 612              	.LVL43:
 613              	.L1117:
 614              	.LBE1794:
 615              	.LBE1793:
 616              	.LBB1801:
 617              	.LBB1802:
 618              	.LBB1803:
 619              	.LBB1804:
 620              		.file 6 "./mcu_periph/sys_time.h"
   1:./mcu_periph/sys_time.h **** /*
   2:./mcu_periph/sys_time.h ****  *
   3:./mcu_periph/sys_time.h ****  * Copyright (C) 2009-2011 The Paparazzi Team
   4:./mcu_periph/sys_time.h ****  *
   5:./mcu_periph/sys_time.h ****  * This file is part of paparazzi.
   6:./mcu_periph/sys_time.h ****  *
   7:./mcu_periph/sys_time.h ****  * paparazzi is free software; you can redistribute it and/or modify
   8:./mcu_periph/sys_time.h ****  * it under the terms of the GNU General Public License as published by
   9:./mcu_periph/sys_time.h ****  * the Free Software Foundation; either version 2, or (at your option)
  10:./mcu_periph/sys_time.h ****  * any later version.
  11:./mcu_periph/sys_time.h ****  *
  12:./mcu_periph/sys_time.h ****  * paparazzi is distributed in the hope that it will be useful,
  13:./mcu_periph/sys_time.h ****  * but WITHOUT ANY WARRANTY; without even the implied warranty of
  14:./mcu_periph/sys_time.h ****  * MERCHANTABILITY or FITNESS FOR A PARTICULAR PURPOSE.  See the
  15:./mcu_periph/sys_time.h ****  * GNU General Public License for more details.
  16:./mcu_periph/sys_time.h ****  *
  17:./mcu_periph/sys_time.h ****  * You should have received a copy of the GNU General Public License
  18:./mcu_periph/sys_time.h ****  * along with paparazzi; see the file COPYING.  If not, write to
  19:./mcu_periph/sys_time.h ****  * the Free Software Foundation, 59 Temple Place - Suite 330,
  20:./mcu_periph/sys_time.h ****  * Boston, MA 02111-1307, USA.
  21:./mcu_periph/sys_time.h ****  *
  22:./mcu_periph/sys_time.h ****  */
  23:./mcu_periph/sys_time.h **** 
  24:./mcu_periph/sys_time.h **** /**
  25:./mcu_periph/sys_time.h ****  * @file mcu_periph/sys_time.h
  26:./mcu_periph/sys_time.h ****  * @brief Architecture independent timing functions.
  27:./mcu_periph/sys_time.h ****  *
  28:./mcu_periph/sys_time.h ****  */
  29:./mcu_periph/sys_time.h **** 
  30:./mcu_periph/sys_time.h **** #ifndef SYS_TIME_H
  31:./mcu_periph/sys_time.h **** #define SYS_TIME_H
  32:./mcu_periph/sys_time.h **** 
  33:./mcu_periph/sys_time.h **** #include <inttypes.h>
  34:./mcu_periph/sys_time.h **** #include <stdlib.h>
  35:./mcu_periph/sys_time.h **** #include "std.h"
  36:./mcu_periph/sys_time.h **** 
  37:./mcu_periph/sys_time.h **** #include BOARD_CONFIG
  38:./mcu_periph/sys_time.h **** 
  39:./mcu_periph/sys_time.h **** #ifndef SYS_TIME_NB_TIMER
  40:./mcu_periph/sys_time.h **** #define SYS_TIME_NB_TIMER 8
  41:./mcu_periph/sys_time.h **** #endif
  42:./mcu_periph/sys_time.h **** 
  43:./mcu_periph/sys_time.h **** 
  44:./mcu_periph/sys_time.h **** /**
  45:./mcu_periph/sys_time.h ****  * (Default) sys_time timer frequency in Hz.
  46:./mcu_periph/sys_time.h ****  * sys_time.resolution is set from this define.
  47:./mcu_periph/sys_time.h ****  */
  48:./mcu_periph/sys_time.h **** #ifndef SYS_TIME_FREQUENCY
  49:./mcu_periph/sys_time.h **** #if defined PERIODIC_FREQUENCY
  50:./mcu_periph/sys_time.h **** #define SYS_TIME_FREQUENCY (2 * PERIODIC_FREQUENCY)
  51:./mcu_periph/sys_time.h **** #else
  52:./mcu_periph/sys_time.h **** #define SYS_TIME_FREQUENCY 1000
  53:./mcu_periph/sys_time.h **** #endif
  54:./mcu_periph/sys_time.h **** #endif
  55:./mcu_periph/sys_time.h **** 
  56:./mcu_periph/sys_time.h **** 
  57:./mcu_periph/sys_time.h **** typedef uint8_t tid_t; ///< sys_time timer id type
  58:./mcu_periph/sys_time.h **** typedef void (*sys_time_cb) (uint8_t id);
  59:./mcu_periph/sys_time.h **** 
  60:./mcu_periph/sys_time.h **** struct sys_time_timer {
  61:./mcu_periph/sys_time.h ****   bool_t          in_use;
  62:./mcu_periph/sys_time.h ****   sys_time_cb     cb;
  63:./mcu_periph/sys_time.h ****   volatile bool_t elapsed;
  64:./mcu_periph/sys_time.h ****   uint32_t        end_time; ///< in SYS_TIME_TICKS
  65:./mcu_periph/sys_time.h ****   uint32_t        duration; ///< in SYS_TIME_TICKS
  66:./mcu_periph/sys_time.h **** };
  67:./mcu_periph/sys_time.h **** 
  68:./mcu_periph/sys_time.h **** struct sys_time {
  69:./mcu_periph/sys_time.h ****   volatile uint32_t nb_sec;       ///< full seconds since startup
  70:./mcu_periph/sys_time.h ****   volatile uint32_t nb_sec_rem;   ///< remainder of seconds since startup in CPU_TICKS
  71:./mcu_periph/sys_time.h ****   volatile uint32_t nb_tick;      ///< SYS_TIME_TICKS since startup
  72:./mcu_periph/sys_time.h ****   struct sys_time_timer timer[SYS_TIME_NB_TIMER];
  73:./mcu_periph/sys_time.h **** 
  74:./mcu_periph/sys_time.h ****   float resolution;               ///< sys_time_timer resolution in seconds
  75:./mcu_periph/sys_time.h ****   uint32_t ticks_per_sec;         ///< sys_time ticks per second (SYS_TIME_FREQUENCY)
  76:./mcu_periph/sys_time.h ****   uint32_t resolution_cpu_ticks;  ///< sys_time_timer resolution in cpu ticks
  77:./mcu_periph/sys_time.h ****   uint32_t cpu_ticks_per_sec;     ///< cpu ticks per second
  78:./mcu_periph/sys_time.h **** };
  79:./mcu_periph/sys_time.h **** 
  80:./mcu_periph/sys_time.h **** extern struct sys_time sys_time;
  81:./mcu_periph/sys_time.h **** 
  82:./mcu_periph/sys_time.h **** 
  83:./mcu_periph/sys_time.h **** extern void sys_time_init(void);
  84:./mcu_periph/sys_time.h **** 
  85:./mcu_periph/sys_time.h **** /**
  86:./mcu_periph/sys_time.h ****  * Register a new system timer.
  87:./mcu_periph/sys_time.h ****  * @param duration Duration in seconds until the timer elapses.
  88:./mcu_periph/sys_time.h ****  * @param cb Callback function that is called from the ISR when timer elapses, or NULL
  89:./mcu_periph/sys_time.h ****  * @return -1 if it failed, the timer id otherwise
  90:./mcu_periph/sys_time.h ****  */
  91:./mcu_periph/sys_time.h **** extern int sys_time_register_timer(float duration, sys_time_cb cb);
  92:./mcu_periph/sys_time.h **** 
  93:./mcu_periph/sys_time.h **** /**
  94:./mcu_periph/sys_time.h ****  * Cancel a system timer by id.
  95:./mcu_periph/sys_time.h ****  * @param id Timer id.
  96:./mcu_periph/sys_time.h ****  */
  97:./mcu_periph/sys_time.h **** extern void sys_time_cancel_timer(tid_t id);
  98:./mcu_periph/sys_time.h **** 
  99:./mcu_periph/sys_time.h **** /**
 100:./mcu_periph/sys_time.h ****  * Update the duration until a timer elapses.
 101:./mcu_periph/sys_time.h ****  * @param id Timer id
 102:./mcu_periph/sys_time.h ****  * @param duration Duration in seconds until the timer elapses.
 103:./mcu_periph/sys_time.h ****  */
 104:./mcu_periph/sys_time.h **** extern void sys_time_update_timer(tid_t id, float duration);
 105:./mcu_periph/sys_time.h **** 
 106:./mcu_periph/sys_time.h **** /**
 107:./mcu_periph/sys_time.h ****  * Check if timer has elapsed.
 108:./mcu_periph/sys_time.h ****  * @param id Timer id
 109:./mcu_periph/sys_time.h ****  * @return TRUE if timer has elapsed
 110:./mcu_periph/sys_time.h ****  */
 111:./mcu_periph/sys_time.h **** static inline bool_t sys_time_check_and_ack_timer(tid_t id) {
 112:./mcu_periph/sys_time.h ****   if (sys_time.timer[id].elapsed) {
 621              		.loc 6 112 0 discriminator 1
 622 00be 7C48     		ldr	r0, .L1296+8
 623 00c0 864B     		ldr	r3, .L1296+52
 624 00c2 0678     		ldrb	r6, [r0, #0]	@ zero_extendqisi2
 625 00c4 1427     		movs	r7, #20
 626 00c6 07FB0635 		mla	r5, r7, r6, r3
 627 00ca 2A7D     		ldrb	r2, [r5, #20]	@ zero_extendqisi2
 628 00cc 1035     		adds	r5, r5, #16
 629 00ce 002A     		cmp	r2, #0
 630 00d0 00F0AA80 		beq	.L34
 113:./mcu_periph/sys_time.h ****     sys_time.timer[id].elapsed = FALSE;
 631              		.loc 6 113 0
 632 00d4 0024     		movs	r4, #0
 633 00d6 2C71     		strb	r4, [r5, #4]
 634              	.LBE1804:
 635              	.LBE1803:
 636              	.LBB1805:
 637              	.LBB1806:
 196:firmwares/rotorcraft/main.c ****   imu_periodic();
 638              		.loc 1 196 0
 639 00d8 FFF7FEFF 		bl	imu_periodic
 640              	.LVL44:
 199:firmwares/rotorcraft/main.c ****   autopilot_periodic();
 641              		.loc 1 199 0
 642 00dc FFF7FEFF 		bl	autopilot_periodic
 643              	.LVL45:
 644              	.LBB1807:
 202:firmwares/rotorcraft/main.c ****   SetActuatorsFromCommands(commands, autopilot_mode);
 645              		.loc 1 202 0
 646 00e0 7F49     		ldr	r1, .L1296+56
 647 00e2 804A     		ldr	r2, .L1296+60
 648 00e4 0878     		ldrb	r0, [r1, #0]	@ zero_extendqisi2
 649 00e6 2146     		mov	r1, r4
 650 00e8 FFF7FEFF 		bl	motor_mixing_run
 651              	.LVL46:
 652 00ec 7E48     		ldr	r0, .L1296+64
 653 00ee 0668     		ldr	r6, [r0, #0]
 654              	.LVL47:
 655 00f0 A642     		cmp	r6, r4
 656 00f2 CCBF     		ite	gt
 657 00f4 0327     		movgt	r7, #3
 658 00f6 2746     		movle	r7, r4
 659 00f8 7E43     		muls	r6, r7, r6
 660              	.LVL48:
 661 00fa A642     		cmp	r6, r4
 662 00fc D4BF     		ite	le
 663 00fe 0123     		movle	r3, #1
 664 0100 2023     		movgt	r3, #32
 665              	.LVL49:
 666 0102 96FBF3F5 		sdiv	r5, r6, r3
 667              	.LVL50:
 668 0106 05F57A74 		add	r4, r5, #1000
 669              	.LVL51:
 670 010a B4F57A7F 		cmp	r4, #1000
 671 010e 06DB     		blt	.L1004
 672 0110 40F26C72 		movw	r2, #1900
 673 0114 9442     		cmp	r4, r2
 674 0116 A8BF     		it	ge
 675 0118 1446     		movge	r4, r2
 676              	.LVL52:
 677 011a A1B2     		uxth	r1, r4
 678 011c 01E0     		b	.L37
 679              	.LVL53:
 680              	.L1004:
 681 011e 4FF47A71 		mov	r1, #1000
 682              	.LVL54:
 683              	.L37:
 684 0122 714B     		ldr	r3, .L1296+64
 685 0124 7148     		ldr	r0, .L1296+68
 686 0126 5D68     		ldr	r5, [r3, #4]
 687              	.LVL55:
 688 0128 C180     		strh	r1, [r0, #6]	@ movhi
 689 012a 002D     		cmp	r5, #0
 690 012c CCBF     		ite	gt
 691 012e 0324     		movgt	r4, #3
 692 0130 0024     		movle	r4, #0
 693 0132 6543     		muls	r5, r4, r5
 694              	.LVL56:
 695 0134 0EB2     		sxth	r6, r1
 696              	.LVL57:
 697 0136 002D     		cmp	r5, #0
 698 0138 D4BF     		ite	le
 699 013a 0121     		movle	r1, #1
 700 013c 2021     		movgt	r1, #32
 701              	.LVL58:
 702 013e 95FBF1F2 		sdiv	r2, r5, r1
 703              	.LVL59:
 704 0142 6B4F     		ldr	r7, .L1296+72
 705              	.LVL60:
 706 0144 02F57A70 		add	r0, r2, #1000
 707              	.LVL61:
 708 0148 B0F57A7F 		cmp	r0, #1000
 709 014c 3E60     		str	r6, [r7, #0]
 710 014e 06DB     		blt	.L1007
 711 0150 40F26C77 		movw	r7, #1900
 712 0154 B842     		cmp	r0, r7
 713 0156 A8BF     		it	ge
 714 0158 3846     		movge	r0, r7
 715              	.LVL62:
 716 015a 86B2     		uxth	r6, r0
 717 015c 01E0     		b	.L40
 718              	.LVL63:
 719              	.L1007:
 720 015e 4FF47A76 		mov	r6, #1000
 721              	.LVL64:
 722              	.L40:
 723 0162 6149     		ldr	r1, .L1296+64
 724 0164 614B     		ldr	r3, .L1296+68
 725 0166 8868     		ldr	r0, [r1, #8]
 726              	.LVL65:
 727 0168 1E80     		strh	r6, [r3, #0]	@ movhi
 728 016a 0028     		cmp	r0, #0
 729 016c CCBF     		ite	gt
 730 016e 0322     		movgt	r2, #3
 731 0170 0022     		movle	r2, #0
 732              	.LVL66:
 733 0172 5043     		muls	r0, r2, r0
 734              	.LVL67:
 735 0174 35B2     		sxth	r5, r6
 736              	.LVL68:
 737 0176 0028     		cmp	r0, #0
 738 0178 D4BF     		ite	le
 739 017a 0126     		movle	r6, #1
 740 017c 2026     		movgt	r6, #32
 741              	.LVL69:
 742 017e 90FBF6F7 		sdiv	r7, r0, r6
 743              	.LVL70:
 744 0182 5B4C     		ldr	r4, .L1296+72
 745              	.LVL71:
 746 0184 07F57A73 		add	r3, r7, #1000
 747              	.LVL72:
 748 0188 B3F57A7F 		cmp	r3, #1000
 749 018c 6560     		str	r5, [r4, #4]
 750 018e 06DB     		blt	.L1010
 751 0190 40F26C74 		movw	r4, #1900
 752 0194 A342     		cmp	r3, r4
 753 0196 A8BF     		it	ge
 754 0198 2346     		movge	r3, r4
 755              	.LVL73:
 756 019a 9DB2     		uxth	r5, r3
 757 019c 01E0     		b	.L43
 758              	.LVL74:
 759              	.L1010:
 760 019e 4FF47A75 		mov	r5, #1000
 761              	.LVL75:
 762              	.L43:
 763 01a2 514E     		ldr	r6, .L1296+64
 764 01a4 5149     		ldr	r1, .L1296+68
 765 01a6 F768     		ldr	r7, [r6, #12]
 766              	.LVL76:
 767 01a8 8D80     		strh	r5, [r1, #4]	@ movhi
 768 01aa 002F     		cmp	r7, #0
 769 01ac CCBF     		ite	gt
 770 01ae 0323     		movgt	r3, #3
 771 01b0 0023     		movle	r3, #0
 772 01b2 5F43     		muls	r7, r3, r7
 773              	.LVL77:
 774 01b4 28B2     		sxth	r0, r5
 775              	.LVL78:
 776 01b6 002F     		cmp	r7, #0
 777 01b8 D4BF     		ite	le
 778 01ba 0125     		movle	r5, #1
 779 01bc 2025     		movgt	r5, #32
 780              	.LVL79:
 781 01be 97FBF5F4 		sdiv	r4, r7, r5
 782              	.LVL80:
 783 01c2 4B4A     		ldr	r2, .L1296+72
 784              	.LVL81:
 785 01c4 04F57A71 		add	r1, r4, #1000
 786              	.LVL82:
 787 01c8 B1F57A7F 		cmp	r1, #1000
 788 01cc 9060     		str	r0, [r2, #8]
 789 01ce 06DB     		blt	.L1013
 790 01d0 40F26C72 		movw	r2, #1900
 791 01d4 9142     		cmp	r1, r2
 792 01d6 A8BF     		it	ge
 793 01d8 1146     		movge	r1, r2
 794              	.LVL83:
 795 01da 88B2     		uxth	r0, r1
 796 01dc 01E0     		b	.L46
 797              	.LVL84:
 798              	.L1013:
 799 01de 4FF47A70 		mov	r0, #1000
 800              	.LVL85:
 801              	.L46:
 802 01e2 434B     		ldr	r3, .L1296+72
 803 01e4 414E     		ldr	r6, .L1296+68
 804              	.LBE1807:
 204:firmwares/rotorcraft/main.c ****   if (autopilot_in_flight) {
 805              		.loc 1 204 0
 806 01e6 434D     		ldr	r5, .L1296+76
 807              	.LBB1808:
 202:firmwares/rotorcraft/main.c ****   SetActuatorsFromCommands(commands, autopilot_mode);
 808              		.loc 1 202 0
 809 01e8 07B2     		sxth	r7, r0
 810 01ea 7080     		strh	r0, [r6, #2]	@ movhi
 811 01ec DF60     		str	r7, [r3, #12]
 812 01ee FFF7FEFF 		bl	actuators_pwm_commit
 813              	.LVL86:
 814              	.LBE1808:
 204:firmwares/rotorcraft/main.c ****   if (autopilot_in_flight) {
 815              		.loc 1 204 0
 816 01f2 2C78     		ldrb	r4, [r5, #0]	@ zero_extendqisi2
 817              	.LVL87:
 818 01f4 84B1     		cbz	r4, .L47
 819              	.LBB1809:
 205:firmwares/rotorcraft/main.c ****     RunOnceEvery(PERIODIC_FREQUENCY, { autopilot_flight_time++; datalink_time++; });
 820              		.loc 1 205 0
 821 01f6 404D     		ldr	r5, .L1296+80
 822 01f8 2988     		ldrh	r1, [r5, #0]
 823 01fa 481C     		adds	r0, r1, #1
 824 01fc 81B2     		uxth	r1, r0
 825 01fe B1F5007F 		cmp	r1, #512
 826 0202 08D3     		bcc	.L1118
 827              	.L48:
 828 0204 3D4E     		ldr	r6, .L1296+84
 829 0206 0022     		movs	r2, #0
 830 0208 2A80     		strh	r2, [r5, #0]	@ movhi
 831 020a 3D4D     		ldr	r5, .L1296+88
 832 020c 3788     		ldrh	r7, [r6, #0]
 833 020e 2C88     		ldrh	r4, [r5, #0]
 834 0210 7B1C     		adds	r3, r7, #1
 835 0212 3380     		strh	r3, [r6, #0]	@ movhi
 836 0214 611C     		adds	r1, r4, #1
 837              	.L1118:
 838 0216 2980     		strh	r1, [r5, #0]	@ movhi
 839              	.L47:
 840              	.LBE1809:
 841              	.LBB1810:
 208:firmwares/rotorcraft/main.c ****   RunOnceEvery(10, LED_PERIODIC());
 842              		.loc 1 208 0
 843 0218 3A48     		ldr	r0, .L1296+92
 844 021a 0288     		ldrh	r2, [r0, #0]
 845 021c 561C     		adds	r6, r2, #1
 846 021e B7B2     		uxth	r7, r6
 847 0220 092F     		cmp	r7, #9
 848 0222 88BF     		it	hi
 849 0224 0027     		movhi	r7, #0
 850 0226 0780     		strh	r7, [r0, #0]	@ movhi
 851              	.L34:
 852              	.LVL88:
 853              	.LBE1810:
 854              	.LBE1806:
 855              	.LBE1805:
 856              	.LBB1811:
 857              	.LBB1812:
 112:./mcu_periph/sys_time.h ****   if (sys_time.timer[id].elapsed) {
 858              		.loc 6 112 0
 859 0228 224B     		ldr	r3, .L1296+12
 860 022a 2C49     		ldr	r1, .L1296+52
 861 022c 1D78     		ldrb	r5, [r3, #0]	@ zero_extendqisi2
 862 022e 1424     		movs	r4, #20
 863 0230 04FB0510 		mla	r0, r4, r5, r1
 864 0234 027D     		ldrb	r2, [r0, #20]	@ zero_extendqisi2
 865 0236 1030     		adds	r0, r0, #16
 866 0238 0AB3     		cbz	r2, .L50
 867              	.LBE1812:
 868              	.LBE1811:
 869              	.LBB1815:
 870              	.LBB1816:
  30:/Users/tony-yi/git/paparazzi_local/var/MYAC/generated/modules.h **** }
  31:/Users/tony-yi/git/paparazzi_local/var/MYAC/generated/modules.h **** 
  32:/Users/tony-yi/git/paparazzi_local/var/MYAC/generated/modules.h **** static inline void modules_periodic_task(void) {
  33:/Users/tony-yi/git/paparazzi_local/var/MYAC/generated/modules.h ****   static uint8_t i15; i15++; if (i15>=15) i15=0;
 871              		.loc 5 33 0
 872 023a 334F     		ldr	r7, .L1296+96
 873              	.LBE1816:
 874              	.LBE1815:
 875              	.LBB1819:
 876              	.LBB1813:
 877              		.loc 6 113 0
 878 023c 0026     		movs	r6, #0
 879              	.LBE1813:
 880              	.LBE1819:
 881              	.LBB1820:
 882              	.LBB1817:
 883              		.loc 5 33 0
 884 023e 3B78     		ldrb	r3, [r7, #0]	@ zero_extendqisi2
 885              	.LBE1817:
 886              	.LBE1820:
 887              	.LBB1821:
 888              	.LBB1814:
 889              		.loc 6 113 0
 890 0240 0671     		strb	r6, [r0, #4]
 891              	.LBE1814:
 892              	.LBE1821:
 893              	.LBB1822:
 894              	.LBB1818:
 895              		.loc 5 33 0
 896 0242 5D1C     		adds	r5, r3, #1
 897 0244 ECB2     		uxtb	r4, r5
 898 0246 0E2C     		cmp	r4, #14
 899 0248 88BF     		it	hi
 900 024a 3E70     		strbhi	r6, [r7, #0]
  34:/Users/tony-yi/git/paparazzi_local/var/MYAC/generated/modules.h **** 
  35:/Users/tony-yi/git/paparazzi_local/var/MYAC/generated/modules.h ****   if (gps_ubx_gps_ubx_ucenter_periodic_status == MODULES_START) { gps_ubx_ucenter_init(); gps_ubx_g
 901              		.loc 5 35 0
 902 024c 174E     		ldr	r6, .L1296+4
  33:/Users/tony-yi/git/paparazzi_local/var/MYAC/generated/modules.h ****   static uint8_t i15; i15++; if (i15>=15) i15=0;
 903              		.loc 5 33 0
 904 024e 98BF     		it	ls
 905 0250 3C70     		strbls	r4, [r7, #0]
 906              		.loc 5 35 0
 907 0252 3178     		ldrb	r1, [r6, #0]	@ zero_extendqisi2
 908 0254 0229     		cmp	r1, #2
 909 0256 03D1     		bne	.L53
 910 0258 FFF7FEFF 		bl	gps_ubx_ucenter_init
 911              	.LVL89:
 912 025c 0120     		movs	r0, #1
 913 025e 3070     		strb	r0, [r6, #0]
 914              	.L53:
  36:/Users/tony-yi/git/paparazzi_local/var/MYAC/generated/modules.h ****   if (gps_ubx_gps_ubx_ucenter_periodic_status == MODULES_STOP) { ; gps_ubx_gps_ubx_ucenter_periodic
 915              		.loc 5 36 0
 916 0260 3278     		ldrb	r2, [r6, #0]	@ zero_extendqisi2
 917 0262 032A     		cmp	r2, #3
 918 0264 02D1     		bne	.L54
 919 0266 114B     		ldr	r3, .L1296+4
 920 0268 0027     		movs	r7, #0
 921 026a 1F70     		strb	r7, [r3, #0]
 922              	.L54:
  37:/Users/tony-yi/git/paparazzi_local/var/MYAC/generated/modules.h **** 
  38:/Users/tony-yi/git/paparazzi_local/var/MYAC/generated/modules.h ****   if (i15 == 0 && gps_ubx_gps_ubx_ucenter_periodic_status == MODULES_RUN) {
 923              		.loc 5 38 0
 924 026c 264D     		ldr	r5, .L1296+96
 925 026e 2C78     		ldrb	r4, [r5, #0]	@ zero_extendqisi2
 926 0270 2CB9     		cbnz	r4, .L50
 927 0272 0E4E     		ldr	r6, .L1296+4
 928 0274 3178     		ldrb	r1, [r6, #0]	@ zero_extendqisi2
 929 0276 0129     		cmp	r1, #1
 930 0278 01D1     		bne	.L50
  39:/Users/tony-yi/git/paparazzi_local/var/MYAC/generated/modules.h ****     gps_ubx_ucenter_periodic();
 931              		.loc 5 39 0
 932 027a FFF7FEFF 		bl	gps_ubx_ucenter_periodic
 933              	.LVL90:
 934              	.L50:
 935              	.LBE1818:
 936              	.LBE1822:
 937              	.LBB1823:
 938              	.LBB1824:
 112:./mcu_periph/sys_time.h ****   if (sys_time.timer[id].elapsed) {
 939              		.loc 6 112 0
 940 027e 0F48     		ldr	r0, .L1296+20
 941 0280 164B     		ldr	r3, .L1296+52
 942 0282 0278     		ldrb	r2, [r0, #0]	@ zero_extendqisi2
 943 0284 1427     		movs	r7, #20
 944 0286 07FB0235 		mla	r5, r7, r2, r3
 945 028a 2C7D     		ldrb	r4, [r5, #20]	@ zero_extendqisi2
 946 028c 1035     		adds	r5, r5, #16
 947 028e 002C     		cmp	r4, #0
 948 0290 5ED0     		beq	.L55
 949              	.LBE1824:
 950              	.LBE1823:
 951              	.LBB1827:
 952              	.LBB1828:
  72:./subsystems/radio_control.h **** }
  73:./subsystems/radio_control.h **** 
  74:./subsystems/radio_control.h **** /************* PERIODIC ******************************************************/
  75:./subsystems/radio_control.h **** static inline void radio_control_periodic_task ( void ) {
  76:./subsystems/radio_control.h ****   static uint8_t _1Hz;
  77:./subsystems/radio_control.h ****   _1Hz++;
 953              		.loc 4 77 0
 954 0292 1E49     		ldr	r1, .L1296+100
 955              	.LBE1828:
 956              	.LBE1827:
 957              	.LBB1831:
 958              	.LBB1825:
 959              		.loc 6 113 0
 960 0294 0026     		movs	r6, #0
 961              	.LBE1825:
 962              	.LBE1831:
 963              	.LBB1832:
 964              	.LBB1829:
 965              		.loc 4 77 0
 966 0296 0878     		ldrb	r0, [r1, #0]	@ zero_extendqisi2
 967              	.LBE1829:
 968              	.LBE1832:
 969              	.LBB1833:
 970              	.LBB1826:
 971              		.loc 6 113 0
 972 0298 2E71     		strb	r6, [r5, #4]
 973              	.LBE1826:
 974              	.LBE1833:
 975              	.LBB1834:
 976              	.LBB1830:
 977              		.loc 4 77 0
 978 029a 421C     		adds	r2, r0, #1
 979 029c D7B2     		uxtb	r7, r2
  78:./subsystems/radio_control.h **** 
  79:./subsystems/radio_control.h ****   if (_1Hz >= 60) {
 980              		.loc 4 79 0
 981 029e 3B2F     		cmp	r7, #59
 982 02a0 014D     		ldr	r5, .L1296
 983 02a2 35D8     		bhi	.L56
  77:./subsystems/radio_control.h ****   _1Hz++;
 984              		.loc 4 77 0
 985 02a4 0F70     		strb	r7, [r1, #0]
 986 02a6 37E0     		b	.L57
 987              	.L1297:
 988              		.align	2
 989              	.L1296:
 990 02a8 00000000 		.word	radio_control
 991 02ac 00000000 		.word	.LANCHOR0
 992 02b0 00000000 		.word	.LANCHOR1
 993 02b4 00000000 		.word	.LANCHOR2
 994 02b8 8988883C 		.word	1015580809
 995 02bc 00000000 		.word	.LANCHOR3
 996 02c0 CDCC4C3D 		.word	1028443341
 997 02c4 00000000 		.word	.LANCHOR4
 998 02c8 CDCCCC3D 		.word	1036831949
 999 02cc 00000000 		.word	.LANCHOR5
 1000 02d0 0AD7A33C 		.word	1017370378
 1001 02d4 00000000 		.word	.LANCHOR6
 1002 02d8 00000000 		.word	.LANCHOR7
 1003 02dc 00000000 		.word	sys_time
 1004 02e0 00000000 		.word	autopilot_motors_on
 1005 02e4 00000000 		.word	commands
 1006 02e8 00000000 		.word	motor_mixing
 1007 02ec 00000000 		.word	actuators
 1008 02f0 00000000 		.word	actuators_pwm_values
 1009 02f4 00000000 		.word	autopilot_in_flight
 1010 02f8 00000000 		.word	.LANCHOR8
 1011 02fc 00000000 		.word	autopilot_flight_time
 1012 0300 00000000 		.word	datalink_time
 1013 0304 00000000 		.word	.LANCHOR9
 1014 0308 00000000 		.word	.LANCHOR10
 1015 030c 00000000 		.word	.LANCHOR11
 1016              	.L56:
  80:./subsystems/radio_control.h ****     _1Hz = 0;
  81:./subsystems/radio_control.h ****     radio_control.frame_rate = radio_control.frame_cpt;
 1017              		.loc 4 81 0
 1018 0310 2B79     		ldrb	r3, [r5, #4]	@ zero_extendqisi2
  80:./subsystems/radio_control.h ****     _1Hz = 0;
 1019              		.loc 4 80 0
 1020 0312 0E70     		strb	r6, [r1, #0]
 1021              		.loc 4 81 0
 1022 0314 EB70     		strb	r3, [r5, #3]
  82:./subsystems/radio_control.h ****     radio_control.frame_cpt = 0;
 1023              		.loc 4 82 0
 1024 0316 2E71     		strb	r6, [r5, #4]
 1025              	.L57:
  83:./subsystems/radio_control.h ****   }
  84:./subsystems/radio_control.h **** 
  85:./subsystems/radio_control.h ****   if (radio_control.time_since_last_frame >= RC_REALLY_LOST_TIME) {
 1026              		.loc 4 85 0
 1027 0318 6E78     		ldrb	r6, [r5, #1]	@ zero_extendqisi2
 1028 031a 0A4C     		ldr	r4, .L1298
 1029 031c 3B2E     		cmp	r6, #59
 1030 031e 02D9     		bls	.L58
  86:./subsystems/radio_control.h ****     radio_control.status = RC_REALLY_LOST;
 1031              		.loc 4 86 0
 1032 0320 0227     		movs	r7, #2
 1033 0322 2770     		strb	r7, [r4, #0]
 1034 0324 07E0     		b	.L59
 1035              	.L58:
  87:./subsystems/radio_control.h ****   } else {
  88:./subsystems/radio_control.h ****     if (radio_control.time_since_last_frame >= RC_LOST_TIME) {
 1036              		.loc 4 88 0
 1037 0326 1D2E     		cmp	r6, #29
 1038 0328 03D9     		bls	.L60
  89:./subsystems/radio_control.h ****       radio_control.status = RC_LOST;
 1039              		.loc 4 89 0
 1040 032a 0121     		movs	r1, #1
  90:./subsystems/radio_control.h ****       radio_control.radio_ok_cpt = RC_OK_CPT;
 1041              		.loc 4 90 0
 1042 032c 0F20     		movs	r0, #15
  89:./subsystems/radio_control.h ****       radio_control.status = RC_LOST;
 1043              		.loc 4 89 0
 1044 032e 2170     		strb	r1, [r4, #0]
 1045              		.loc 4 90 0
 1046 0330 A070     		strb	r0, [r4, #2]
 1047              	.L60:
  91:./subsystems/radio_control.h ****     }
  92:./subsystems/radio_control.h ****     radio_control.time_since_last_frame++;
 1048              		.loc 4 92 0
 1049 0332 721C     		adds	r2, r6, #1
 1050 0334 6270     		strb	r2, [r4, #1]
 1051              	.L59:
  93:./subsystems/radio_control.h ****   }
  94:./subsystems/radio_control.h **** 
  95:./subsystems/radio_control.h **** #if defined RADIO_CONTROL_LED
  96:./subsystems/radio_control.h ****   if (radio_control.status == RC_OK) {
 1052              		.loc 4 96 0
 1053 0336 2578     		ldrb	r5, [r4, #0]	@ zero_extendqisi2
  97:./subsystems/radio_control.h ****     LED_ON(RADIO_CONTROL_LED);
 1054              		.loc 4 97 0
 1055 0338 0348     		ldr	r0, .L1298+4
 1056 033a 2021     		movs	r1, #32
  96:./subsystems/radio_control.h ****   if (radio_control.status == RC_OK) {
 1057              		.loc 4 96 0
 1058 033c 35B9     		cbnz	r5, .L61
 1059              		.loc 4 97 0
 1060 033e FFF7FEFF 		bl	gpio_clear
 1061              	.LVL91:
 1062 0342 05E0     		b	.L55
 1063              	.L1299:
 1064              		.align	2
 1065              	.L1298:
 1066 0344 00000000 		.word	radio_control
 1067 0348 00100140 		.word	1073811456
 1068              	.LVL92:
 1069              	.L61:
  98:./subsystems/radio_control.h ****   }
  99:./subsystems/radio_control.h ****   else {
 100:./subsystems/radio_control.h ****     LED_OFF(RADIO_CONTROL_LED);
 1070              		.loc 4 100 0
 1071 034c FFF7FEFF 		bl	gpio_set
 1072              	.LVL93:
 1073              	.L55:
 1074              	.LBE1830:
 1075              	.LBE1834:
 1076              	.LBB1835:
 1077              	.LBB1836:
 112:./mcu_periph/sys_time.h ****   if (sys_time.timer[id].elapsed) {
 1078              		.loc 6 112 0
 1079 0350 B04B     		ldr	r3, .L1300
 1080 0352 B149     		ldr	r1, .L1300+4
 1081 0354 1C78     		ldrb	r4, [r3, #0]	@ zero_extendqisi2
 1082 0356 1426     		movs	r6, #20
 1083 0358 06FB0417 		mla	r7, r6, r4, r1
 1084 035c 387D     		ldrb	r0, [r7, #20]	@ zero_extendqisi2
 1085 035e 1037     		adds	r7, r7, #16
 1086 0360 F8B1     		cbz	r0, .L62
 1087              	.LBE1836:
 1088              	.LBE1835:
 1089              	.LBB1839:
 1090              	.LBB1840:
 216:firmwares/rotorcraft/main.c ****   if (radio_control.status != RC_OK &&
 1091              		.loc 1 216 0
 1092 0362 AE4A     		ldr	r2, .L1300+8
 1093              	.LBE1840:
 1094              	.LBE1839:
 1095              	.LBB1845:
 1096              	.LBB1837:
 1097              		.loc 6 113 0
 1098 0364 0020     		movs	r0, #0
 1099              	.LBE1837:
 1100              	.LBE1845:
 1101              	.LBB1846:
 1102              	.LBB1843:
 216:firmwares/rotorcraft/main.c ****   if (radio_control.status != RC_OK &&
 1103              		.loc 1 216 0
 1104 0366 1578     		ldrb	r5, [r2, #0]	@ zero_extendqisi2
 1105              	.LBE1843:
 1106              	.LBE1846:
 1107              	.LBB1847:
 1108              	.LBB1838:
 1109              		.loc 6 113 0
 1110 0368 3871     		strb	r0, [r7, #4]
 1111 036a AD4C     		ldr	r4, .L1300+12
 1112              	.LBE1838:
 1113              	.LBE1847:
 1114              	.LBB1848:
 1115              	.LBB1844:
 216:firmwares/rotorcraft/main.c ****   if (radio_control.status != RC_OK &&
 1116              		.loc 1 216 0
 1117 036c 35B1     		cbz	r5, .L63
 217:firmwares/rotorcraft/main.c ****       autopilot_mode != AP_MODE_KILL &&
 1118              		.loc 1 217 0
 1119 036e 2378     		ldrb	r3, [r4, #0]	@ zero_extendqisi2
 216:firmwares/rotorcraft/main.c ****   if (radio_control.status != RC_OK &&
 1120              		.loc 1 216 0
 1121 0370 012B     		cmp	r3, #1
 1122 0372 03D0     		beq	.L63
 217:firmwares/rotorcraft/main.c ****       autopilot_mode != AP_MODE_KILL &&
 1123              		.loc 1 217 0
 1124 0374 0C2B     		cmp	r3, #12
 1125 0376 01D0     		beq	.L63
 220:firmwares/rotorcraft/main.c ****     autopilot_set_mode(AP_MODE_FAILSAFE);
 1126              		.loc 1 220 0
 1127 0378 FFF7FEFF 		bl	autopilot_set_mode
 1128              	.LVL94:
 1129              	.L63:
 224:firmwares/rotorcraft/main.c ****   if (autopilot_mode == AP_MODE_NAV &&
 1130              		.loc 1 224 0
 1131 037c 2678     		ldrb	r6, [r4, #0]	@ zero_extendqisi2
 1132 037e 0C2E     		cmp	r6, #12
 1133 0380 0FD1     		bne	.L62
 1134 0382 A849     		ldr	r1, .L1300+16
 1135 0384 0F78     		ldrb	r7, [r1, #0]	@ zero_extendqisi2
 1136 0386 67B1     		cbz	r7, .L62
 1137              	.LBB1841:
 1138              	.LBB1842:
 1139              		.file 7 "./subsystems/gps.h"
   1:./subsystems/gps.h **** /*
   2:./subsystems/gps.h ****  * Copyright (C) 2003-2011 The Paparazzi Team
   3:./subsystems/gps.h ****  *
   4:./subsystems/gps.h ****  * This file is part of paparazzi.
   5:./subsystems/gps.h ****  *
   6:./subsystems/gps.h ****  * paparazzi is free software; you can redistribute it and/or modify
   7:./subsystems/gps.h ****  * it under the terms of the GNU General Public License as published by
   8:./subsystems/gps.h ****  * the Free Software Foundation; either version 2, or (at your option)
   9:./subsystems/gps.h ****  * any later version.
  10:./subsystems/gps.h ****  *
  11:./subsystems/gps.h ****  * paparazzi is distributed in the hope that it will be useful,
  12:./subsystems/gps.h ****  * but WITHOUT ANY WARRANTY; without even the implied warranty of
  13:./subsystems/gps.h ****  * MERCHANTABILITY or FITNESS FOR A PARTICULAR PURPOSE.  See the
  14:./subsystems/gps.h ****  * GNU General Public License for more details.
  15:./subsystems/gps.h ****  *
  16:./subsystems/gps.h ****  * You should have received a copy of the GNU General Public License
  17:./subsystems/gps.h ****  * along with paparazzi; see the file COPYING.  If not, write to
  18:./subsystems/gps.h ****  * the Free Software Foundation, 59 Temple Place - Suite 330,
  19:./subsystems/gps.h ****  * Boston, MA 02111-1307, USA.
  20:./subsystems/gps.h ****  */
  21:./subsystems/gps.h **** 
  22:./subsystems/gps.h **** /** @file gps.h
  23:./subsystems/gps.h ****  *  @brief Device independent GPS code (interface)
  24:./subsystems/gps.h ****  *
  25:./subsystems/gps.h ****  */
  26:./subsystems/gps.h **** 
  27:./subsystems/gps.h **** #ifndef GPS_H
  28:./subsystems/gps.h **** #define GPS_H
  29:./subsystems/gps.h **** 
  30:./subsystems/gps.h **** 
  31:./subsystems/gps.h **** #include "std.h"
  32:./subsystems/gps.h **** #include "math/pprz_geodetic_int.h"
  33:./subsystems/gps.h **** 
  34:./subsystems/gps.h **** #include "mcu_periph/sys_time.h"
  35:./subsystems/gps.h **** 
  36:./subsystems/gps.h **** /* GPS model specific implementation or sim */
  37:./subsystems/gps.h **** #ifdef GPS_TYPE_H
  38:./subsystems/gps.h **** #include GPS_TYPE_H
  39:./subsystems/gps.h **** #endif
  40:./subsystems/gps.h **** 
  41:./subsystems/gps.h **** #define GPS_FIX_NONE 0x00
  42:./subsystems/gps.h **** #define GPS_FIX_2D   0x02
  43:./subsystems/gps.h **** #define GPS_FIX_3D   0x03
  44:./subsystems/gps.h **** 
  45:./subsystems/gps.h **** #define GpsFixValid() (gps.fix == GPS_FIX_3D)
  46:./subsystems/gps.h **** 
  47:./subsystems/gps.h **** 
  48:./subsystems/gps.h **** #ifndef GPS_NB_CHANNELS
  49:./subsystems/gps.h **** #define GPS_NB_CHANNELS 1
  50:./subsystems/gps.h **** #endif
  51:./subsystems/gps.h **** 
  52:./subsystems/gps.h **** /** data structure for Space Vehicle Information of a single satellite */
  53:./subsystems/gps.h **** struct SVinfo {
  54:./subsystems/gps.h ****   uint8_t svid;  ///< Satellite ID
  55:./subsystems/gps.h ****   uint8_t flags; ///< bitfield with GPS receiver specific flags
  56:./subsystems/gps.h ****   uint8_t qi;    ///< quality bitfield (GPS receiver specific)
  57:./subsystems/gps.h ****   uint8_t cno;   ///< Carrier to Noise Ratio (Signal Strength) in dbHz
  58:./subsystems/gps.h ****   int8_t elev;   ///< elevation in deg
  59:./subsystems/gps.h ****   int16_t azim;  ///< azimuth in deg
  60:./subsystems/gps.h **** };
  61:./subsystems/gps.h **** 
  62:./subsystems/gps.h **** /** data structure for GPS information */
  63:./subsystems/gps.h **** struct GpsState {
  64:./subsystems/gps.h ****   struct EcefCoor_i ecef_pos;    ///< position in ECEF in cm
  65:./subsystems/gps.h ****   struct LlaCoor_i lla_pos;      ///< position in LLA (lat,lon: rad*1e7; alt: mm over ellipsoid)
  66:./subsystems/gps.h ****   struct UtmCoor_i utm_pos;      ///< position in UTM (north,east: cm; alt: mm over ellipsoid)
  67:./subsystems/gps.h ****   int32_t hmsl;                  ///< height above mean sea level in mm
  68:./subsystems/gps.h ****   struct EcefCoor_i ecef_vel;    ///< speed ECEF in cm/s
  69:./subsystems/gps.h ****   struct NedCoor_i ned_vel;      ///< speed NED in cm/s
  70:./subsystems/gps.h ****   int16_t gspeed;                ///< norm of 2d ground speed in cm/s
  71:./subsystems/gps.h ****   int16_t speed_3d;              ///< norm of 3d speed in cm/s
  72:./subsystems/gps.h ****   int32_t course;                ///< GPS course over ground in rad*1e7, [0, 2*Pi]*1e7 (CW/north)
  73:./subsystems/gps.h ****   uint32_t pacc;                 ///< position accuracy in cm
  74:./subsystems/gps.h ****   uint32_t sacc;                 ///< speed accuracy in cm/s
  75:./subsystems/gps.h ****   uint32_t cacc;                 ///< course accuracy in rad*1e7
  76:./subsystems/gps.h ****   uint16_t pdop;                 ///< position dilution of precision scaled by 100
  77:./subsystems/gps.h ****   uint8_t num_sv;                ///< number of sat in fix
  78:./subsystems/gps.h ****   uint8_t fix;                   ///< status of fix
  79:./subsystems/gps.h ****   int16_t week;                  ///< GPS week
  80:./subsystems/gps.h ****   uint32_t tow;                  ///< GPS time of week in ms
  81:./subsystems/gps.h **** 
  82:./subsystems/gps.h ****   uint8_t nb_channels;           ///< Number of scanned satellites
  83:./subsystems/gps.h ****   struct SVinfo svinfos[GPS_NB_CHANNELS]; ///< holds information from the Space Vehicles (Satellite
  84:./subsystems/gps.h **** 
  85:./subsystems/gps.h ****   uint32_t last_fix_ticks;       ///< cpu time ticks at last valid fix
  86:./subsystems/gps.h ****   uint32_t last_fix_time;        ///< cpu time in sec at last valid fix
  87:./subsystems/gps.h ****   uint16_t reset;                ///< hotstart, warmstart, coldstart
  88:./subsystems/gps.h **** };
  89:./subsystems/gps.h **** 
  90:./subsystems/gps.h **** /** data structure for GPS time sync */
  91:./subsystems/gps.h **** struct GpsTimeSync {
  92:./subsystems/gps.h ****   uint32_t t0_tow;      ///< GPS time of week in ms from last message
  93:./subsystems/gps.h ****   int32_t t0_tow_frac;  ///< fractional ns remainder of tow [ms], range -500000 .. 500000
  94:./subsystems/gps.h ****   uint32_t t0_ticks;    ///< hw clock ticks when GPS message is received
  95:./subsystems/gps.h **** };
  96:./subsystems/gps.h **** 
  97:./subsystems/gps.h **** /** global GPS state */
  98:./subsystems/gps.h **** extern struct GpsState gps;
  99:./subsystems/gps.h **** 
 100:./subsystems/gps.h **** /** initialize the global GPS state */
 101:./subsystems/gps.h **** extern void gps_init(void);
 102:./subsystems/gps.h **** 
 103:./subsystems/gps.h **** /* GPS model specific init implementation */
 104:./subsystems/gps.h **** extern void gps_impl_init(void);
 105:./subsystems/gps.h **** 
 106:./subsystems/gps.h **** 
 107:./subsystems/gps.h **** /* mark GPS as lost when no valid 3D fix was received for GPS_TIMEOUT secs */
 108:./subsystems/gps.h **** #ifndef GPS_TIMEOUT
 109:./subsystems/gps.h **** #define GPS_TIMEOUT 5
 110:./subsystems/gps.h **** #endif
 111:./subsystems/gps.h **** 
 112:./subsystems/gps.h **** inline bool_t GpsIsLost(void);
 113:./subsystems/gps.h **** 
 114:./subsystems/gps.h **** inline bool_t GpsIsLost(void) {
 115:./subsystems/gps.h ****   if (sys_time.nb_sec - gps.last_fix_time > GPS_TIMEOUT) {
 1140              		.loc 7 115 0
 1141 0388 A348     		ldr	r0, .L1300+4
 1142 038a A74C     		ldr	r4, .L1300+20
 1143 038c 0568     		ldr	r5, [r0, #0]
 1144 038e D4F8EC20 		ldr	r2, [r4, #236]
 1145 0392 AB1A     		subs	r3, r5, r2
 1146 0394 052B     		cmp	r3, #5
 1147 0396 04D9     		bls	.L62
 116:./subsystems/gps.h ****     gps.fix = GPS_FIX_NONE;
 1148              		.loc 7 116 0
 1149 0398 0020     		movs	r0, #0
 1150 039a 84F85B00 		strb	r0, [r4, #91]
 1151              	.LBE1842:
 1152              	.LBE1841:
 231:firmwares/rotorcraft/main.c ****     autopilot_set_mode(AP_MODE_FAILSAFE);
 1153              		.loc 1 231 0
 1154 039e FFF7FEFF 		bl	autopilot_set_mode
 1155              	.LVL95:
 1156              	.L62:
 1157              	.LBE1844:
 1158              	.LBE1848:
 1159              	.LBB1849:
 1160              	.LBB1850:
 112:./mcu_periph/sys_time.h ****   if (sys_time.timer[id].elapsed) {
 1161              		.loc 6 112 0
 1162 03a2 A24E     		ldr	r6, .L1300+24
 1163 03a4 9C48     		ldr	r0, .L1300+4
 1164 03a6 3778     		ldrb	r7, [r6, #0]	@ zero_extendqisi2
 1165 03a8 1421     		movs	r1, #20
 1166 03aa 01FB0705 		mla	r5, r1, r7, r0
 1167 03ae 2A7D     		ldrb	r2, [r5, #20]	@ zero_extendqisi2
 1168 03b0 0446     		mov	r4, r0
 1169 03b2 1035     		adds	r5, r5, #16
 1170 03b4 1AB1     		cbz	r2, .L64
 1171              		.loc 6 113 0
 1172 03b6 0023     		movs	r3, #0
 1173 03b8 2B71     		strb	r3, [r5, #4]
 1174              	.LBE1850:
 1175              	.LBE1849:
 187:firmwares/rotorcraft/main.c ****     electrical_periodic();
 1176              		.loc 1 187 0
 1177 03ba FFF7FEFF 		bl	electrical_periodic
 1178              	.LVL96:
 1179              	.L64:
 1180              	.LBB1851:
 1181              	.LBB1852:
 112:./mcu_periph/sys_time.h ****   if (sys_time.timer[id].elapsed) {
 1182              		.loc 6 112 0
 1183 03be 9C4E     		ldr	r6, .L1300+28
 1184 03c0 1420     		movs	r0, #20
 1185 03c2 3778     		ldrb	r7, [r6, #0]	@ zero_extendqisi2
 1186              	.LVL97:
 1187 03c4 00FB0741 		mla	r1, r0, r7, r4
 1188 03c8 0D7D     		ldrb	r5, [r1, #20]	@ zero_extendqisi2
 1189 03ca 1031     		adds	r1, r1, #16
 1190 03cc 1DB1     		cbz	r5, .L65
 1191              		.loc 6 113 0
 1192 03ce 0022     		movs	r2, #0
 1193 03d0 0A71     		strb	r2, [r1, #4]
 1194              	.LBE1852:
 1195              	.LBE1851:
 189:firmwares/rotorcraft/main.c ****     baro_periodic();
 1196              		.loc 1 189 0
 1197 03d2 FFF7FEFF 		bl	baro_periodic
 1198              	.LVL98:
 1199              	.L65:
 1200              	.LBB1853:
 1201              	.LBB1854:
 112:./mcu_periph/sys_time.h ****   if (sys_time.timer[id].elapsed) {
 1202              		.loc 6 112 0
 1203 03d6 974C     		ldr	r4, .L1300+32
 1204 03d8 8F4F     		ldr	r7, .L1300+4
 1205              	.LVL99:
 1206 03da 2378     		ldrb	r3, [r4, #0]	@ zero_extendqisi2
 1207 03dc 1426     		movs	r6, #20
 1208 03de 06FB0370 		mla	r0, r6, r3, r7
 1209 03e2 017D     		ldrb	r1, [r0, #20]	@ zero_extendqisi2
 1210 03e4 1030     		adds	r0, r0, #16
 1211 03e6 0029     		cmp	r1, #0
 1212 03e8 0DF06A84 		beq	.L66
 1213              	.LBE1854:
 1214              	.LBE1853:
 1215              	.LBB1857:
 1216              	.LBB1858:
 212:firmwares/rotorcraft/main.c ****   PeriodicSendMain(DefaultChannel,DefaultDevice);
 1217              		.loc 1 212 0
 1218 03ec 924A     		ldr	r2, .L1300+36
 1219              	.LBE1858:
 1220              	.LBE1857:
 1221              	.LBB3912:
 1222              	.LBB1855:
 1223              		.loc 6 113 0
 1224 03ee 0025     		movs	r5, #0
 1225              	.LBE1855:
 1226              	.LBE3912:
 1227              	.LBB3913:
 1228              	.LBB3910:
 212:firmwares/rotorcraft/main.c ****   PeriodicSendMain(DefaultChannel,DefaultDevice);
 1229              		.loc 1 212 0
 1230 03f0 1478     		ldrb	r4, [r2, #0]	@ zero_extendqisi2
 1231              	.LBE3910:
 1232              	.LBE3913:
 1233              	.LBB3914:
 1234              	.LBB1856:
 1235              		.loc 6 113 0
 1236 03f2 0571     		strb	r5, [r0, #4]
 1237              	.LBE1856:
 1238              	.LBE3914:
 1239              	.LBB3915:
 1240              	.LBB3911:
 212:firmwares/rotorcraft/main.c ****   PeriodicSendMain(DefaultChannel,DefaultDevice);
 1241              		.loc 1 212 0
 1242 03f4 002C     		cmp	r4, #0
 1243 03f6 42F0A983 		bne	.L67
 1244              	.LBB1859:
 1245 03fa 904B     		ldr	r3, .L1300+40
 1246 03fc 9049     		ldr	r1, .L1300+44
 1247 03fe 1E78     		ldrb	r6, [r3, #0]	@ zero_extendqisi2
 1248 0400 0D78     		ldrb	r5, [r1, #0]	@ zero_extendqisi2
 1249 0402 771C     		adds	r7, r6, #1
 1250 0404 F8B2     		uxtb	r0, r7
 1251 0406 0E28     		cmp	r0, #14
 1252 0408 94BF     		ite	ls
 1253 040a 1870     		strbls	r0, [r3, #0]
 1254 040c 1C70     		strbhi	r4, [r3, #0]
 1255 040e 6A1C     		adds	r2, r5, #1
 1256 0410 8C4B     		ldr	r3, .L1300+48
 1257 0412 D4B2     		uxtb	r4, r2
 1258 0414 1E78     		ldrb	r6, [r3, #0]	@ zero_extendqisi2
 1259 0416 3B2C     		cmp	r4, #59
 1260 0418 88BF     		it	hi
 1261 041a 0024     		movhi	r4, #0
 1262 041c 0C70     		strb	r4, [r1, #0]
 1263 041e 771C     		adds	r7, r6, #1
 1264 0420 8949     		ldr	r1, .L1300+52
 1265 0422 F8B2     		uxtb	r0, r7
 1266 0424 0D78     		ldrb	r5, [r1, #0]	@ zero_extendqisi2
 1267 0426 4128     		cmp	r0, #65
 1268 0428 88BF     		it	hi
 1269 042a 0020     		movhi	r0, #0
 1270 042c 1870     		strb	r0, [r3, #0]
 1271 042e 6A1C     		adds	r2, r5, #1
 1272 0430 864B     		ldr	r3, .L1300+56
 1273 0432 D4B2     		uxtb	r4, r2
 1274 0434 1E78     		ldrb	r6, [r3, #0]	@ zero_extendqisi2
 1275 0436 472C     		cmp	r4, #71
 1276 0438 88BF     		it	hi
 1277 043a 0024     		movhi	r4, #0
 1278 043c 0C70     		strb	r4, [r1, #0]
 1279 043e 771C     		adds	r7, r6, #1
 1280 0440 8349     		ldr	r1, .L1300+60
 1281 0442 F8B2     		uxtb	r0, r7
 1282 0444 0D78     		ldrb	r5, [r1, #0]	@ zero_extendqisi2
 1283 0446 4D28     		cmp	r0, #77
 1284 0448 88BF     		it	hi
 1285 044a 0020     		movhi	r0, #0
 1286 044c 1870     		strb	r0, [r3, #0]
 1287 044e 6A1C     		adds	r2, r5, #1
 1288 0450 804B     		ldr	r3, .L1300+64
 1289 0452 D4B2     		uxtb	r4, r2
 1290 0454 1E78     		ldrb	r6, [r3, #0]	@ zero_extendqisi2
 1291 0456 5F2C     		cmp	r4, #95
 1292 0458 88BF     		it	hi
 1293 045a 0024     		movhi	r4, #0
 1294 045c 0C70     		strb	r4, [r1, #0]
 1295 045e 771C     		adds	r7, r6, #1
 1296 0460 7D49     		ldr	r1, .L1300+68
 1297 0462 F8B2     		uxtb	r0, r7
 1298 0464 0D78     		ldrb	r5, [r1, #0]	@ zero_extendqisi2
 1299 0466 7D28     		cmp	r0, #125
 1300 0468 88BF     		it	hi
 1301 046a 0020     		movhi	r0, #0
 1302 046c 1870     		strb	r0, [r3, #0]
 1303 046e 6A1C     		adds	r2, r5, #1
 1304 0470 7A4B     		ldr	r3, .L1300+72
 1305 0472 D4B2     		uxtb	r4, r2
 1306 0474 B92C     		cmp	r4, #185
 1307 0476 1E78     		ldrb	r6, [r3, #0]	@ zero_extendqisi2
 1308 0478 88BF     		it	hi
 1309 047a 0024     		movhi	r4, #0
 1310 047c 0C70     		strb	r4, [r1, #0]
 1311 047e 771C     		adds	r7, r6, #1
 1312 0480 7749     		ldr	r1, .L1300+76
 1313 0482 F8B2     		uxtb	r0, r7
 1314 0484 F428     		cmp	r0, #244
 1315 0486 0D88     		ldrh	r5, [r1, #0]
 1316 0488 88BF     		it	hi
 1317 048a 0020     		movhi	r0, #0
 1318 048c 1870     		strb	r0, [r3, #0]
 1319 048e 6A1C     		adds	r2, r5, #1
 1320 0490 6A4B     		ldr	r3, .L1300+40
 1321 0492 94B2     		uxth	r4, r2
 1322 0494 B4F5997F 		cmp	r4, #306
 1323 0498 1E78     		ldrb	r6, [r3, #0]	@ zero_extendqisi2
 1324 049a 28BF     		it	cs
 1325 049c 0024     		movcs	r4, #0
 1326 049e 0C80     		strh	r4, [r1, #0]	@ movhi
 1327 04a0 002E     		cmp	r6, #0
 1328 04a2 40F03983 		bne	.L88
 1329              	.LBB1860:
 1330 04a6 6F4A     		ldr	r2, .L1300+80
 1331 04a8 6F48     		ldr	r0, .L1300+84
 1332 04aa 1768     		ldr	r7, [r2, #0]
 1333 04ac 4021     		movs	r1, #64
 1334 04ae 7D42     		negs	r5, r7
 1335 04b0 0495     		str	r5, [sp, #16]
 1336 04b2 FFF7FEFF 		bl	uart_check_free_space
 1337              	.LVL100:
 1338 04b6 0028     		cmp	r0, #0
 1339 04b8 01F0C280 		beq	.L99
 1340 04bc 6B4B     		ldr	r3, .L1300+88
 1341 04be 6C4F     		ldr	r7, .L1300+92
 1342 04c0 1E88     		ldrh	r6, [r3, #0]
 1343 04c2 3A88     		ldrh	r2, [r7, #0]
 1344 04c4 4036     		adds	r6, r6, #64
 1345 04c6 551C     		adds	r5, r2, #1
 1346              	.LBB1861:
 1347 04c8 9921     		movs	r1, #153
 1348 04ca 6748     		ldr	r0, .L1300+84
 1349              	.LBE1861:
 1350 04cc 1E80     		strh	r6, [r3, #0]	@ movhi
 1351 04ce 3D80     		strh	r5, [r7, #0]	@ movhi
 1352 04d0 684D     		ldr	r5, .L1300+96
 1353              	.LBB1862:
 1354 04d2 FFF7FEFF 		bl	uart_transmit
 1355              	.LVL101:
 1356 04d6 4021     		movs	r1, #64
 1357 04d8 6348     		ldr	r0, .L1300+84
 1358              	.LBE1862:
 1359 04da 674F     		ldr	r7, .L1300+100
 1360              	.LBB1863:
 1361 04dc FFF7FEFF 		bl	uart_transmit
 1362              	.LVL102:
 1363              	.LBE1863:
 1364 04e0 8121     		movs	r1, #129
 1365 04e2 4124     		movs	r4, #65
 1366 04e4 2970     		strb	r1, [r5, #0]
 1367 04e6 6048     		ldr	r0, .L1300+84
 1368 04e8 0121     		movs	r1, #1
 1369 04ea 3C70     		strb	r4, [r7, #0]
 1370 04ec FFF7FEFF 		bl	uart_transmit
 1371              	.LVL103:
 1372 04f0 3878     		ldrb	r0, [r7, #0]	@ zero_extendqisi2
 1373 04f2 2E78     		ldrb	r6, [r5, #0]	@ zero_extendqisi2
 1374 04f4 6D38     		subs	r0, r0, #109
 1375 04f6 C3B2     		uxtb	r3, r0
 1376 04f8 9A19     		adds	r2, r3, r6
 1377 04fa 9321     		movs	r1, #147
 1378 04fc 5A48     		ldr	r0, .L1300+84
 1379 04fe 3B70     		strb	r3, [r7, #0]
 1380 0500 2A70     		strb	r2, [r5, #0]
 1381 0502 FFF7FEFF 		bl	uart_transmit
 1382              	.LVL104:
 1383              	.LBB1864:
 1384 0506 FFF7FEFF 		bl	stateGetPositionEnu_i
 1385              	.LVL105:
 1386 050a 3C78     		ldrb	r4, [r7, #0]	@ zero_extendqisi2
 1387 050c 0178     		ldrb	r1, [r0, #0]	@ zero_extendqisi2
 1388              	.LVL106:
 1389 050e 2E78     		ldrb	r6, [r5, #0]	@ zero_extendqisi2
 1390 0510 0819     		adds	r0, r1, r4
 1391              	.LVL107:
 1392 0512 C3B2     		uxtb	r3, r0
 1393              	.LVL108:
 1394 0514 9A19     		adds	r2, r3, r6
 1395              	.LVL109:
 1396 0516 5448     		ldr	r0, .L1300+84
 1397 0518 3B70     		strb	r3, [r7, #0]
 1398 051a 2A70     		strb	r2, [r5, #0]
 1399 051c FFF7FEFF 		bl	uart_transmit
 1400              	.LVL110:
 1401              	.LBE1864:
 1402              	.LBB1865:
 1403 0520 FFF7FEFF 		bl	stateGetPositionEnu_i
 1404              	.LVL111:
 1405 0524 3C78     		ldrb	r4, [r7, #0]	@ zero_extendqisi2
 1406 0526 4178     		ldrb	r1, [r0, #1]	@ zero_extendqisi2
 1407              	.LVL112:
 1408 0528 2E78     		ldrb	r6, [r5, #0]	@ zero_extendqisi2
 1409 052a 0819     		adds	r0, r1, r4
 1410              	.LVL113:
 1411 052c C3B2     		uxtb	r3, r0
 1412 052e 9A19     		adds	r2, r3, r6
 1413              	.LVL114:
 1414 0530 4D48     		ldr	r0, .L1300+84
 1415 0532 3B70     		strb	r3, [r7, #0]
 1416 0534 2A70     		strb	r2, [r5, #0]
 1417 0536 FFF7FEFF 		bl	uart_transmit
 1418              	.LVL115:
 1419              	.LBE1865:
 1420              	.LBB1866:
 1421 053a FFF7FEFF 		bl	stateGetPositionEnu_i
 1422              	.LVL116:
 1423 053e 3C78     		ldrb	r4, [r7, #0]	@ zero_extendqisi2
 1424 0540 8178     		ldrb	r1, [r0, #2]	@ zero_extendqisi2
 1425              	.LVL117:
 1426 0542 2E78     		ldrb	r6, [r5, #0]	@ zero_extendqisi2
 1427 0544 0819     		adds	r0, r1, r4
 1428              	.LVL118:
 1429 0546 C3B2     		uxtb	r3, r0
 1430 0548 9A19     		adds	r2, r3, r6
 1431              	.LVL119:
 1432 054a 4748     		ldr	r0, .L1300+84
 1433 054c 3B70     		strb	r3, [r7, #0]
 1434 054e 2A70     		strb	r2, [r5, #0]
 1435 0550 FFF7FEFF 		bl	uart_transmit
 1436              	.LVL120:
 1437              	.LBE1866:
 1438              	.LBB1867:
 1439 0554 FFF7FEFF 		bl	stateGetPositionEnu_i
 1440              	.LVL121:
 1441 0558 3C78     		ldrb	r4, [r7, #0]	@ zero_extendqisi2
 1442 055a C178     		ldrb	r1, [r0, #3]	@ zero_extendqisi2
 1443              	.LVL122:
 1444 055c 2E78     		ldrb	r6, [r5, #0]	@ zero_extendqisi2
 1445 055e 0819     		adds	r0, r1, r4
 1446              	.LVL123:
 1447 0560 C3B2     		uxtb	r3, r0
 1448 0562 9A19     		adds	r2, r3, r6
 1449              	.LVL124:
 1450 0564 4048     		ldr	r0, .L1300+84
 1451 0566 3B70     		strb	r3, [r7, #0]
 1452 0568 2A70     		strb	r2, [r5, #0]
 1453 056a FFF7FEFF 		bl	uart_transmit
 1454              	.LVL125:
 1455              	.LBE1867:
 1456              	.LBB1868:
 1457 056e FFF7FEFF 		bl	stateGetPositionEnu_i
 1458              	.LVL126:
 1459 0572 3C78     		ldrb	r4, [r7, #0]	@ zero_extendqisi2
 1460 0574 0179     		ldrb	r1, [r0, #4]	@ zero_extendqisi2
 1461              	.LVL127:
 1462 0576 2E78     		ldrb	r6, [r5, #0]	@ zero_extendqisi2
 1463 0578 0819     		adds	r0, r1, r4
 1464              	.LVL128:
 1465 057a C3B2     		uxtb	r3, r0
 1466 057c 9A19     		adds	r2, r3, r6
 1467              	.LVL129:
 1468 057e 3A48     		ldr	r0, .L1300+84
 1469 0580 3B70     		strb	r3, [r7, #0]
 1470 0582 2A70     		strb	r2, [r5, #0]
 1471 0584 FFF7FEFF 		bl	uart_transmit
 1472              	.LVL130:
 1473              	.LBE1868:
 1474              	.LBB1869:
 1475 0588 FFF7FEFF 		bl	stateGetPositionEnu_i
 1476              	.LVL131:
 1477 058c 3C78     		ldrb	r4, [r7, #0]	@ zero_extendqisi2
 1478 058e 4179     		ldrb	r1, [r0, #5]	@ zero_extendqisi2
 1479              	.LVL132:
 1480 0590 2E78     		ldrb	r6, [r5, #0]	@ zero_extendqisi2
 1481 0592 0819     		adds	r0, r1, r4
 1482              	.LVL133:
 1483 0594 C3B2     		uxtb	r3, r0
 1484 0596 9A19     		adds	r2, r3, r6
 1485              	.LVL134:
 1486 0598 3348     		ldr	r0, .L1300+84
 1487 059a 3B70     		strb	r3, [r7, #0]
 1488 059c 2A70     		strb	r2, [r5, #0]
 1489 059e FFF7FEFF 		bl	uart_transmit
 1490              	.LVL135:
 1491              	.LBE1869:
 1492              	.LBB1870:
 1493 05a2 FFF7FEFF 		bl	stateGetPositionEnu_i
 1494              	.LVL136:
 1495 05a6 3C78     		ldrb	r4, [r7, #0]	@ zero_extendqisi2
 1496 05a8 8179     		ldrb	r1, [r0, #6]	@ zero_extendqisi2
 1497              	.LVL137:
 1498 05aa 2E78     		ldrb	r6, [r5, #0]	@ zero_extendqisi2
 1499 05ac 0819     		adds	r0, r1, r4
 1500              	.LVL138:
 1501 05ae C3B2     		uxtb	r3, r0
 1502 05b0 9A19     		adds	r2, r3, r6
 1503              	.LVL139:
 1504 05b2 2D48     		ldr	r0, .L1300+84
 1505 05b4 3B70     		strb	r3, [r7, #0]
 1506 05b6 2A70     		strb	r2, [r5, #0]
 1507 05b8 FFF7FEFF 		bl	uart_transmit
 1508              	.LVL140:
 1509              	.LBE1870:
 1510              	.LBB1871:
 1511 05bc FFF7FEFF 		bl	stateGetPositionEnu_i
 1512              	.LVL141:
 1513 05c0 3C78     		ldrb	r4, [r7, #0]	@ zero_extendqisi2
 1514 05c2 C179     		ldrb	r1, [r0, #7]	@ zero_extendqisi2
 1515              	.LVL142:
 1516 05c4 2E78     		ldrb	r6, [r5, #0]	@ zero_extendqisi2
 1517 05c6 0819     		adds	r0, r1, r4
 1518              	.LVL143:
 1519 05c8 C3B2     		uxtb	r3, r0
 1520 05ca 9A19     		adds	r2, r3, r6
 1521              	.LVL144:
 1522 05cc 2648     		ldr	r0, .L1300+84
 1523 05ce 3B70     		strb	r3, [r7, #0]
 1524 05d0 2A70     		strb	r2, [r5, #0]
 1525 05d2 FFF7FEFF 		bl	uart_transmit
 1526              	.LVL145:
 1527              	.LBE1871:
 1528              	.LBB1872:
 1529 05d6 FFF7FEFF 		bl	stateGetPositionEnu_i
 1530              	.LVL146:
 1531 05da 3C78     		ldrb	r4, [r7, #0]	@ zero_extendqisi2
 1532 05dc 017A     		ldrb	r1, [r0, #8]	@ zero_extendqisi2
 1533              	.LVL147:
 1534 05de 2E78     		ldrb	r6, [r5, #0]	@ zero_extendqisi2
 1535 05e0 0819     		adds	r0, r1, r4
 1536              	.LVL148:
 1537 05e2 C3B2     		uxtb	r3, r0
 1538 05e4 9A19     		adds	r2, r3, r6
 1539              	.LVL149:
 1540 05e6 2048     		ldr	r0, .L1300+84
 1541 05e8 3B70     		strb	r3, [r7, #0]
 1542 05ea 2A70     		strb	r2, [r5, #0]
 1543 05ec FFF7FEFF 		bl	uart_transmit
 1544              	.LVL150:
 1545              	.LBE1872:
 1546              	.LBB1873:
 1547 05f0 FFF7FEFF 		bl	stateGetPositionEnu_i
 1548              	.LVL151:
 1549 05f4 3C78     		ldrb	r4, [r7, #0]	@ zero_extendqisi2
 1550 05f6 417A     		ldrb	r1, [r0, #9]	@ zero_extendqisi2
 1551              	.LVL152:
 1552 05f8 2E78     		ldrb	r6, [r5, #0]	@ zero_extendqisi2
 1553 05fa 0819     		adds	r0, r1, r4
 1554              	.LVL153:
 1555 05fc C3B2     		uxtb	r3, r0
 1556 05fe 9A19     		adds	r2, r3, r6
 1557              	.LVL154:
 1558 0600 1948     		ldr	r0, .L1300+84
 1559 0602 3B70     		strb	r3, [r7, #0]
 1560 0604 2A70     		strb	r2, [r5, #0]
 1561 0606 FFF7FEFF 		bl	uart_transmit
 1562              	.LVL155:
 1563              	.LBE1873:
 1564              	.LBB1874:
 1565 060a FFF7FEFF 		bl	stateGetPositionEnu_i
 1566              	.LVL156:
 1567 060e 3C78     		ldrb	r4, [r7, #0]	@ zero_extendqisi2
 1568 0610 817A     		ldrb	r1, [r0, #10]	@ zero_extendqisi2
 1569 0612 33E0     		b	.L1301
 1570              	.L1302:
 1571              		.align	2
 1572              	.L1300:
 1573 0614 00000000 		.word	.LANCHOR4
 1574 0618 00000000 		.word	sys_time
 1575 061c 00000000 		.word	radio_control
 1576 0620 00000000 		.word	autopilot_mode
 1577 0624 00000000 		.word	autopilot_motors_on
 1578 0628 00000000 		.word	gps
 1579 062c 00000000 		.word	.LANCHOR5
 1580 0630 00000000 		.word	.LANCHOR6
 1581 0634 00000000 		.word	.LANCHOR7
 1582 0638 00000000 		.word	telemetry_mode_Main
 1583 063c 00000000 		.word	.LANCHOR12
 1584 0640 00000000 		.word	.LANCHOR13
 1585 0644 00000000 		.word	.LANCHOR14
 1586 0648 00000000 		.word	.LANCHOR15
 1587 064c 00000000 		.word	.LANCHOR16
 1588 0650 00000000 		.word	.LANCHOR17
 1589 0654 00000000 		.word	.LANCHOR18
 1590 0658 00000000 		.word	.LANCHOR19
 1591 065c 00000000 		.word	.LANCHOR20
 1592 0660 00000000 		.word	.LANCHOR21
 1593 0664 00000000 		.word	guidance_v_z_sp
 1594 0668 00000000 		.word	uart2
 1595 066c 00000000 		.word	downlink_nb_bytes
 1596 0670 00000000 		.word	downlink_nb_msgs
 1597 0674 00000000 		.word	ck_b
 1598 0678 00000000 		.word	ck_a
 1599              	.L1301:
 1600              	.LVL157:
 1601 067c 2E78     		ldrb	r6, [r5, #0]	@ zero_extendqisi2
 1602 067e 0819     		adds	r0, r1, r4
 1603              	.LVL158:
 1604 0680 C3B2     		uxtb	r3, r0
 1605 0682 9A19     		adds	r2, r3, r6
 1606              	.LVL159:
 1607 0684 B648     		ldr	r0, .L1303
 1608 0686 3B70     		strb	r3, [r7, #0]
 1609 0688 2A70     		strb	r2, [r5, #0]
 1610 068a FFF7FEFF 		bl	uart_transmit
 1611              	.LVL160:
 1612              	.LBE1874:
 1613              	.LBB1875:
 1614 068e FFF7FEFF 		bl	stateGetPositionEnu_i
 1615              	.LVL161:
 1616 0692 3C78     		ldrb	r4, [r7, #0]	@ zero_extendqisi2
 1617 0694 C17A     		ldrb	r1, [r0, #11]	@ zero_extendqisi2
 1618              	.LVL162:
 1619 0696 2E78     		ldrb	r6, [r5, #0]	@ zero_extendqisi2
 1620 0698 0819     		adds	r0, r1, r4
 1621              	.LVL163:
 1622 069a C3B2     		uxtb	r3, r0
 1623 069c 9A19     		adds	r2, r3, r6
 1624              	.LVL164:
 1625 069e B048     		ldr	r0, .L1303
 1626 06a0 3B70     		strb	r3, [r7, #0]
 1627 06a2 2A70     		strb	r2, [r5, #0]
 1628 06a4 FFF7FEFF 		bl	uart_transmit
 1629              	.LVL165:
 1630              	.LBE1875:
 1631              	.LBB1876:
 1632 06a8 FFF7FEFF 		bl	stateGetSpeedEnu_i
 1633              	.LVL166:
 1634 06ac 3C78     		ldrb	r4, [r7, #0]	@ zero_extendqisi2
 1635 06ae 0178     		ldrb	r1, [r0, #0]	@ zero_extendqisi2
 1636              	.LVL167:
 1637 06b0 2E78     		ldrb	r6, [r5, #0]	@ zero_extendqisi2
 1638 06b2 0819     		adds	r0, r1, r4
 1639              	.LVL168:
 1640 06b4 C3B2     		uxtb	r3, r0
 1641 06b6 9A19     		adds	r2, r3, r6
 1642              	.LVL169:
 1643 06b8 A948     		ldr	r0, .L1303
 1644 06ba 3B70     		strb	r3, [r7, #0]
 1645 06bc 2A70     		strb	r2, [r5, #0]
 1646 06be FFF7FEFF 		bl	uart_transmit
 1647              	.LVL170:
 1648              	.LBE1876:
 1649              	.LBB1877:
 1650 06c2 FFF7FEFF 		bl	stateGetSpeedEnu_i
 1651              	.LVL171:
 1652 06c6 3C78     		ldrb	r4, [r7, #0]	@ zero_extendqisi2
 1653 06c8 4178     		ldrb	r1, [r0, #1]	@ zero_extendqisi2
 1654              	.LVL172:
 1655 06ca 2E78     		ldrb	r6, [r5, #0]	@ zero_extendqisi2
 1656 06cc 0819     		adds	r0, r1, r4
 1657              	.LVL173:
 1658 06ce C3B2     		uxtb	r3, r0
 1659 06d0 9A19     		adds	r2, r3, r6
 1660              	.LVL174:
 1661 06d2 A348     		ldr	r0, .L1303
 1662 06d4 3B70     		strb	r3, [r7, #0]
 1663 06d6 2A70     		strb	r2, [r5, #0]
 1664 06d8 FFF7FEFF 		bl	uart_transmit
 1665              	.LVL175:
 1666              	.LBE1877:
 1667              	.LBB1878:
 1668 06dc FFF7FEFF 		bl	stateGetSpeedEnu_i
 1669              	.LVL176:
 1670 06e0 3C78     		ldrb	r4, [r7, #0]	@ zero_extendqisi2
 1671 06e2 8178     		ldrb	r1, [r0, #2]	@ zero_extendqisi2
 1672              	.LVL177:
 1673 06e4 2E78     		ldrb	r6, [r5, #0]	@ zero_extendqisi2
 1674 06e6 0819     		adds	r0, r1, r4
 1675              	.LVL178:
 1676 06e8 C3B2     		uxtb	r3, r0
 1677 06ea 9A19     		adds	r2, r3, r6
 1678              	.LVL179:
 1679 06ec 9C48     		ldr	r0, .L1303
 1680 06ee 3B70     		strb	r3, [r7, #0]
 1681 06f0 2A70     		strb	r2, [r5, #0]
 1682 06f2 FFF7FEFF 		bl	uart_transmit
 1683              	.LVL180:
 1684              	.LBE1878:
 1685              	.LBB1879:
 1686 06f6 FFF7FEFF 		bl	stateGetSpeedEnu_i
 1687              	.LVL181:
 1688 06fa 3C78     		ldrb	r4, [r7, #0]	@ zero_extendqisi2
 1689 06fc C178     		ldrb	r1, [r0, #3]	@ zero_extendqisi2
 1690              	.LVL182:
 1691 06fe 2E78     		ldrb	r6, [r5, #0]	@ zero_extendqisi2
 1692 0700 0819     		adds	r0, r1, r4
 1693              	.LVL183:
 1694 0702 C3B2     		uxtb	r3, r0
 1695 0704 9A19     		adds	r2, r3, r6
 1696              	.LVL184:
 1697 0706 9648     		ldr	r0, .L1303
 1698 0708 3B70     		strb	r3, [r7, #0]
 1699 070a 2A70     		strb	r2, [r5, #0]
 1700 070c FFF7FEFF 		bl	uart_transmit
 1701              	.LVL185:
 1702              	.LBE1879:
 1703              	.LBB1880:
 1704 0710 FFF7FEFF 		bl	stateGetSpeedEnu_i
 1705              	.LVL186:
 1706 0714 3C78     		ldrb	r4, [r7, #0]	@ zero_extendqisi2
 1707 0716 0179     		ldrb	r1, [r0, #4]	@ zero_extendqisi2
 1708              	.LVL187:
 1709 0718 2E78     		ldrb	r6, [r5, #0]	@ zero_extendqisi2
 1710 071a 0819     		adds	r0, r1, r4
 1711              	.LVL188:
 1712 071c C3B2     		uxtb	r3, r0
 1713 071e 9A19     		adds	r2, r3, r6
 1714              	.LVL189:
 1715 0720 8F48     		ldr	r0, .L1303
 1716 0722 3B70     		strb	r3, [r7, #0]
 1717 0724 2A70     		strb	r2, [r5, #0]
 1718 0726 FFF7FEFF 		bl	uart_transmit
 1719              	.LVL190:
 1720              	.LBE1880:
 1721              	.LBB1881:
 1722 072a FFF7FEFF 		bl	stateGetSpeedEnu_i
 1723              	.LVL191:
 1724 072e 3C78     		ldrb	r4, [r7, #0]	@ zero_extendqisi2
 1725 0730 4179     		ldrb	r1, [r0, #5]	@ zero_extendqisi2
 1726              	.LVL192:
 1727 0732 2E78     		ldrb	r6, [r5, #0]	@ zero_extendqisi2
 1728 0734 0819     		adds	r0, r1, r4
 1729              	.LVL193:
 1730 0736 C3B2     		uxtb	r3, r0
 1731 0738 9A19     		adds	r2, r3, r6
 1732              	.LVL194:
 1733 073a 8948     		ldr	r0, .L1303
 1734 073c 3B70     		strb	r3, [r7, #0]
 1735 073e 2A70     		strb	r2, [r5, #0]
 1736 0740 FFF7FEFF 		bl	uart_transmit
 1737              	.LVL195:
 1738              	.LBE1881:
 1739              	.LBB1882:
 1740 0744 FFF7FEFF 		bl	stateGetSpeedEnu_i
 1741              	.LVL196:
 1742 0748 3C78     		ldrb	r4, [r7, #0]	@ zero_extendqisi2
 1743 074a 8179     		ldrb	r1, [r0, #6]	@ zero_extendqisi2
 1744              	.LVL197:
 1745 074c 2E78     		ldrb	r6, [r5, #0]	@ zero_extendqisi2
 1746 074e 0819     		adds	r0, r1, r4
 1747              	.LVL198:
 1748 0750 C3B2     		uxtb	r3, r0
 1749 0752 9A19     		adds	r2, r3, r6
 1750              	.LVL199:
 1751 0754 8248     		ldr	r0, .L1303
 1752 0756 3B70     		strb	r3, [r7, #0]
 1753 0758 2A70     		strb	r2, [r5, #0]
 1754 075a FFF7FEFF 		bl	uart_transmit
 1755              	.LVL200:
 1756              	.LBE1882:
 1757              	.LBB1883:
 1758 075e FFF7FEFF 		bl	stateGetSpeedEnu_i
 1759              	.LVL201:
 1760 0762 3C78     		ldrb	r4, [r7, #0]	@ zero_extendqisi2
 1761 0764 C179     		ldrb	r1, [r0, #7]	@ zero_extendqisi2
 1762              	.LVL202:
 1763 0766 2E78     		ldrb	r6, [r5, #0]	@ zero_extendqisi2
 1764 0768 0819     		adds	r0, r1, r4
 1765              	.LVL203:
 1766 076a C3B2     		uxtb	r3, r0
 1767 076c 9A19     		adds	r2, r3, r6
 1768              	.LVL204:
 1769 076e 7C48     		ldr	r0, .L1303
 1770 0770 3B70     		strb	r3, [r7, #0]
 1771 0772 2A70     		strb	r2, [r5, #0]
 1772 0774 FFF7FEFF 		bl	uart_transmit
 1773              	.LVL205:
 1774              	.LBE1883:
 1775              	.LBB1884:
 1776 0778 FFF7FEFF 		bl	stateGetSpeedEnu_i
 1777              	.LVL206:
 1778 077c 3C78     		ldrb	r4, [r7, #0]	@ zero_extendqisi2
 1779 077e 017A     		ldrb	r1, [r0, #8]	@ zero_extendqisi2
 1780              	.LVL207:
 1781 0780 2E78     		ldrb	r6, [r5, #0]	@ zero_extendqisi2
 1782 0782 0819     		adds	r0, r1, r4
 1783              	.LVL208:
 1784 0784 C3B2     		uxtb	r3, r0
 1785 0786 9A19     		adds	r2, r3, r6
 1786              	.LVL209:
 1787 0788 7548     		ldr	r0, .L1303
 1788 078a 3B70     		strb	r3, [r7, #0]
 1789 078c 2A70     		strb	r2, [r5, #0]
 1790 078e FFF7FEFF 		bl	uart_transmit
 1791              	.LVL210:
 1792              	.LBE1884:
 1793              	.LBB1885:
 1794 0792 FFF7FEFF 		bl	stateGetSpeedEnu_i
 1795              	.LVL211:
 1796 0796 3C78     		ldrb	r4, [r7, #0]	@ zero_extendqisi2
 1797 0798 417A     		ldrb	r1, [r0, #9]	@ zero_extendqisi2
 1798              	.LVL212:
 1799 079a 2E78     		ldrb	r6, [r5, #0]	@ zero_extendqisi2
 1800 079c 0819     		adds	r0, r1, r4
 1801              	.LVL213:
 1802 079e C3B2     		uxtb	r3, r0
 1803 07a0 9A19     		adds	r2, r3, r6
 1804              	.LVL214:
 1805 07a2 6F48     		ldr	r0, .L1303
 1806 07a4 3B70     		strb	r3, [r7, #0]
 1807 07a6 2A70     		strb	r2, [r5, #0]
 1808 07a8 FFF7FEFF 		bl	uart_transmit
 1809              	.LVL215:
 1810              	.LBE1885:
 1811              	.LBB1886:
 1812 07ac FFF7FEFF 		bl	stateGetSpeedEnu_i
 1813              	.LVL216:
 1814 07b0 3C78     		ldrb	r4, [r7, #0]	@ zero_extendqisi2
 1815 07b2 817A     		ldrb	r1, [r0, #10]	@ zero_extendqisi2
 1816              	.LVL217:
 1817 07b4 2E78     		ldrb	r6, [r5, #0]	@ zero_extendqisi2
 1818 07b6 0819     		adds	r0, r1, r4
 1819              	.LVL218:
 1820 07b8 C3B2     		uxtb	r3, r0
 1821 07ba 9A19     		adds	r2, r3, r6
 1822              	.LVL219:
 1823 07bc 6848     		ldr	r0, .L1303
 1824 07be 3B70     		strb	r3, [r7, #0]
 1825 07c0 2A70     		strb	r2, [r5, #0]
 1826 07c2 FFF7FEFF 		bl	uart_transmit
 1827              	.LVL220:
 1828              	.LBE1886:
 1829              	.LBB1887:
 1830 07c6 FFF7FEFF 		bl	stateGetSpeedEnu_i
 1831              	.LVL221:
 1832 07ca 3C78     		ldrb	r4, [r7, #0]	@ zero_extendqisi2
 1833 07cc C17A     		ldrb	r1, [r0, #11]	@ zero_extendqisi2
 1834              	.LVL222:
 1835 07ce 2E78     		ldrb	r6, [r5, #0]	@ zero_extendqisi2
 1836 07d0 0819     		adds	r0, r1, r4
 1837              	.LVL223:
 1838 07d2 C3B2     		uxtb	r3, r0
 1839 07d4 9A19     		adds	r2, r3, r6
 1840              	.LVL224:
 1841 07d6 6248     		ldr	r0, .L1303
 1842 07d8 3B70     		strb	r3, [r7, #0]
 1843 07da 2A70     		strb	r2, [r5, #0]
 1844 07dc FFF7FEFF 		bl	uart_transmit
 1845              	.LVL225:
 1846              	.LBE1887:
 1847              	.LBB1888:
 1848 07e0 FFF7FEFF 		bl	stateGetNedToBodyEulers_i
 1849              	.LVL226:
 1850 07e4 3C78     		ldrb	r4, [r7, #0]	@ zero_extendqisi2
 1851 07e6 0178     		ldrb	r1, [r0, #0]	@ zero_extendqisi2
 1852              	.LVL227:
 1853 07e8 2E78     		ldrb	r6, [r5, #0]	@ zero_extendqisi2
 1854 07ea 0819     		adds	r0, r1, r4
 1855              	.LVL228:
 1856 07ec C3B2     		uxtb	r3, r0
 1857 07ee 9A19     		adds	r2, r3, r6
 1858              	.LVL229:
 1859 07f0 5B48     		ldr	r0, .L1303
 1860 07f2 3B70     		strb	r3, [r7, #0]
 1861 07f4 2A70     		strb	r2, [r5, #0]
 1862 07f6 FFF7FEFF 		bl	uart_transmit
 1863              	.LVL230:
 1864              	.LBE1888:
 1865              	.LBB1889:
 1866 07fa FFF7FEFF 		bl	stateGetNedToBodyEulers_i
 1867              	.LVL231:
 1868 07fe 3C78     		ldrb	r4, [r7, #0]	@ zero_extendqisi2
 1869 0800 4178     		ldrb	r1, [r0, #1]	@ zero_extendqisi2
 1870              	.LVL232:
 1871 0802 2E78     		ldrb	r6, [r5, #0]	@ zero_extendqisi2
 1872 0804 0819     		adds	r0, r1, r4
 1873              	.LVL233:
 1874 0806 C3B2     		uxtb	r3, r0
 1875 0808 9A19     		adds	r2, r3, r6
 1876              	.LVL234:
 1877 080a 5548     		ldr	r0, .L1303
 1878 080c 3B70     		strb	r3, [r7, #0]
 1879 080e 2A70     		strb	r2, [r5, #0]
 1880 0810 FFF7FEFF 		bl	uart_transmit
 1881              	.LVL235:
 1882              	.LBE1889:
 1883              	.LBB1890:
 1884 0814 FFF7FEFF 		bl	stateGetNedToBodyEulers_i
 1885              	.LVL236:
 1886 0818 3C78     		ldrb	r4, [r7, #0]	@ zero_extendqisi2
 1887 081a 8178     		ldrb	r1, [r0, #2]	@ zero_extendqisi2
 1888              	.LVL237:
 1889 081c 2E78     		ldrb	r6, [r5, #0]	@ zero_extendqisi2
 1890 081e 0819     		adds	r0, r1, r4
 1891              	.LVL238:
 1892 0820 C3B2     		uxtb	r3, r0
 1893 0822 9A19     		adds	r2, r3, r6
 1894              	.LVL239:
 1895 0824 4E48     		ldr	r0, .L1303
 1896 0826 3B70     		strb	r3, [r7, #0]
 1897 0828 2A70     		strb	r2, [r5, #0]
 1898 082a FFF7FEFF 		bl	uart_transmit
 1899              	.LVL240:
 1900              	.LBE1890:
 1901              	.LBB1891:
 1902 082e FFF7FEFF 		bl	stateGetNedToBodyEulers_i
 1903              	.LVL241:
 1904 0832 3C78     		ldrb	r4, [r7, #0]	@ zero_extendqisi2
 1905 0834 C178     		ldrb	r1, [r0, #3]	@ zero_extendqisi2
 1906              	.LVL242:
 1907 0836 2E78     		ldrb	r6, [r5, #0]	@ zero_extendqisi2
 1908 0838 0819     		adds	r0, r1, r4
 1909              	.LVL243:
 1910 083a C3B2     		uxtb	r3, r0
 1911 083c 9A19     		adds	r2, r3, r6
 1912              	.LVL244:
 1913 083e 4848     		ldr	r0, .L1303
 1914 0840 3B70     		strb	r3, [r7, #0]
 1915 0842 2A70     		strb	r2, [r5, #0]
 1916 0844 FFF7FEFF 		bl	uart_transmit
 1917              	.LVL245:
 1918              	.LBE1891:
 1919              	.LBB1892:
 1920 0848 FFF7FEFF 		bl	stateGetNedToBodyEulers_i
 1921              	.LVL246:
 1922 084c 3C78     		ldrb	r4, [r7, #0]	@ zero_extendqisi2
 1923 084e 0179     		ldrb	r1, [r0, #4]	@ zero_extendqisi2
 1924              	.LVL247:
 1925 0850 2E78     		ldrb	r6, [r5, #0]	@ zero_extendqisi2
 1926 0852 0819     		adds	r0, r1, r4
 1927              	.LVL248:
 1928 0854 C3B2     		uxtb	r3, r0
 1929 0856 9A19     		adds	r2, r3, r6
 1930              	.LVL249:
 1931 0858 4148     		ldr	r0, .L1303
 1932 085a 3B70     		strb	r3, [r7, #0]
 1933 085c 2A70     		strb	r2, [r5, #0]
 1934 085e FFF7FEFF 		bl	uart_transmit
 1935              	.LVL250:
 1936              	.LBE1892:
 1937              	.LBB1893:
 1938 0862 FFF7FEFF 		bl	stateGetNedToBodyEulers_i
 1939              	.LVL251:
 1940 0866 3C78     		ldrb	r4, [r7, #0]	@ zero_extendqisi2
 1941 0868 4179     		ldrb	r1, [r0, #5]	@ zero_extendqisi2
 1942              	.LVL252:
 1943 086a 2E78     		ldrb	r6, [r5, #0]	@ zero_extendqisi2
 1944 086c 0819     		adds	r0, r1, r4
 1945              	.LVL253:
 1946 086e C3B2     		uxtb	r3, r0
 1947 0870 9A19     		adds	r2, r3, r6
 1948              	.LVL254:
 1949 0872 3B48     		ldr	r0, .L1303
 1950 0874 3B70     		strb	r3, [r7, #0]
 1951 0876 2A70     		strb	r2, [r5, #0]
 1952 0878 FFF7FEFF 		bl	uart_transmit
 1953              	.LVL255:
 1954              	.LBE1893:
 1955              	.LBB1894:
 1956 087c FFF7FEFF 		bl	stateGetNedToBodyEulers_i
 1957              	.LVL256:
 1958 0880 3C78     		ldrb	r4, [r7, #0]	@ zero_extendqisi2
 1959 0882 8179     		ldrb	r1, [r0, #6]	@ zero_extendqisi2
 1960              	.LVL257:
 1961 0884 2E78     		ldrb	r6, [r5, #0]	@ zero_extendqisi2
 1962 0886 0819     		adds	r0, r1, r4
 1963              	.LVL258:
 1964 0888 C3B2     		uxtb	r3, r0
 1965 088a 9A19     		adds	r2, r3, r6
 1966              	.LVL259:
 1967 088c 3448     		ldr	r0, .L1303
 1968 088e 3B70     		strb	r3, [r7, #0]
 1969 0890 2A70     		strb	r2, [r5, #0]
 1970 0892 FFF7FEFF 		bl	uart_transmit
 1971              	.LVL260:
 1972              	.LBE1894:
 1973              	.LBB1895:
 1974 0896 FFF7FEFF 		bl	stateGetNedToBodyEulers_i
 1975              	.LVL261:
 1976 089a 3C78     		ldrb	r4, [r7, #0]	@ zero_extendqisi2
 1977 089c C179     		ldrb	r1, [r0, #7]	@ zero_extendqisi2
 1978              	.LVL262:
 1979 089e 2E78     		ldrb	r6, [r5, #0]	@ zero_extendqisi2
 1980 08a0 0819     		adds	r0, r1, r4
 1981              	.LVL263:
 1982 08a2 C3B2     		uxtb	r3, r0
 1983 08a4 9A19     		adds	r2, r3, r6
 1984              	.LVL264:
 1985 08a6 2E48     		ldr	r0, .L1303
 1986 08a8 3B70     		strb	r3, [r7, #0]
 1987 08aa 2A70     		strb	r2, [r5, #0]
 1988 08ac FFF7FEFF 		bl	uart_transmit
 1989              	.LVL265:
 1990              	.LBE1895:
 1991              	.LBB1896:
 1992 08b0 FFF7FEFF 		bl	stateGetNedToBodyEulers_i
 1993              	.LVL266:
 1994 08b4 3C78     		ldrb	r4, [r7, #0]	@ zero_extendqisi2
 1995 08b6 017A     		ldrb	r1, [r0, #8]	@ zero_extendqisi2
 1996              	.LVL267:
 1997 08b8 2E78     		ldrb	r6, [r5, #0]	@ zero_extendqisi2
 1998 08ba 0819     		adds	r0, r1, r4
 1999              	.LVL268:
 2000 08bc C3B2     		uxtb	r3, r0
 2001 08be 9A19     		adds	r2, r3, r6
 2002              	.LVL269:
 2003 08c0 2748     		ldr	r0, .L1303
 2004 08c2 3B70     		strb	r3, [r7, #0]
 2005 08c4 2A70     		strb	r2, [r5, #0]
 2006 08c6 FFF7FEFF 		bl	uart_transmit
 2007              	.LVL270:
 2008              	.LBE1896:
 2009              	.LBB1897:
 2010 08ca FFF7FEFF 		bl	stateGetNedToBodyEulers_i
 2011              	.LVL271:
 2012 08ce 3C78     		ldrb	r4, [r7, #0]	@ zero_extendqisi2
 2013 08d0 417A     		ldrb	r1, [r0, #9]	@ zero_extendqisi2
 2014              	.LVL272:
 2015 08d2 2E78     		ldrb	r6, [r5, #0]	@ zero_extendqisi2
 2016 08d4 0819     		adds	r0, r1, r4
 2017              	.LVL273:
 2018 08d6 C3B2     		uxtb	r3, r0
 2019 08d8 9A19     		adds	r2, r3, r6
 2020              	.LVL274:
 2021 08da 2148     		ldr	r0, .L1303
 2022 08dc 3B70     		strb	r3, [r7, #0]
 2023 08de 2A70     		strb	r2, [r5, #0]
 2024 08e0 FFF7FEFF 		bl	uart_transmit
 2025              	.LVL275:
 2026              	.LBE1897:
 2027              	.LBB1898:
 2028 08e4 FFF7FEFF 		bl	stateGetNedToBodyEulers_i
 2029              	.LVL276:
 2030 08e8 3C78     		ldrb	r4, [r7, #0]	@ zero_extendqisi2
 2031 08ea 817A     		ldrb	r1, [r0, #10]	@ zero_extendqisi2
 2032              	.LVL277:
 2033 08ec 2E78     		ldrb	r6, [r5, #0]	@ zero_extendqisi2
 2034 08ee 0819     		adds	r0, r1, r4
 2035              	.LVL278:
 2036 08f0 C3B2     		uxtb	r3, r0
 2037 08f2 9A19     		adds	r2, r3, r6
 2038              	.LVL279:
 2039 08f4 1A48     		ldr	r0, .L1303
 2040 08f6 3B70     		strb	r3, [r7, #0]
 2041 08f8 2A70     		strb	r2, [r5, #0]
 2042 08fa FFF7FEFF 		bl	uart_transmit
 2043              	.LVL280:
 2044              	.LBE1898:
 2045              	.LBB1899:
 2046 08fe FFF7FEFF 		bl	stateGetNedToBodyEulers_i
 2047              	.LVL281:
 2048 0902 3C78     		ldrb	r4, [r7, #0]	@ zero_extendqisi2
 2049 0904 C17A     		ldrb	r1, [r0, #11]	@ zero_extendqisi2
 2050              	.LVL282:
 2051 0906 2E78     		ldrb	r6, [r5, #0]	@ zero_extendqisi2
 2052 0908 0819     		adds	r0, r1, r4
 2053              	.LVL283:
 2054 090a C3B2     		uxtb	r3, r0
 2055              	.LBE1899:
 2056              	.LBB1900:
 2057 090c 154C     		ldr	r4, .L1303+4
 2058              	.LBE1900:
 2059              	.LBB1901:
 2060 090e 9A19     		adds	r2, r3, r6
 2061              	.LVL284:
 2062 0910 1348     		ldr	r0, .L1303
 2063 0912 3B70     		strb	r3, [r7, #0]
 2064 0914 2A70     		strb	r2, [r5, #0]
 2065 0916 FFF7FEFF 		bl	uart_transmit
 2066              	.LVL285:
 2067              	.LBE1901:
 2068              	.LBB1902:
 2069 091a 2179     		ldrb	r1, [r4, #4]	@ zero_extendqisi2
 2070              	.LVL286:
 2071 091c 3878     		ldrb	r0, [r7, #0]	@ zero_extendqisi2
 2072 091e 2A78     		ldrb	r2, [r5, #0]	@ zero_extendqisi2
 2073 0920 0B18     		adds	r3, r1, r0
 2074 0922 DEB2     		uxtb	r6, r3
 2075 0924 B018     		adds	r0, r6, r2
 2076              	.LVL287:
 2077 0926 2870     		strb	r0, [r5, #0]
 2078 0928 0D48     		ldr	r0, .L1303
 2079 092a 3E70     		strb	r6, [r7, #0]
 2080 092c FFF7FEFF 		bl	uart_transmit
 2081              	.LVL288:
 2082              	.LBE1902:
 2083              	.LBB1903:
 2084 0930 6179     		ldrb	r1, [r4, #5]	@ zero_extendqisi2
 2085              	.LVL289:
 2086 0932 3B78     		ldrb	r3, [r7, #0]	@ zero_extendqisi2
 2087 0934 2A78     		ldrb	r2, [r5, #0]	@ zero_extendqisi2
 2088 0936 CE18     		adds	r6, r1, r3
 2089              	.LVL290:
 2090 0938 F0B2     		uxtb	r0, r6
 2091 093a 8318     		adds	r3, r0, r2
 2092              	.LVL291:
 2093 093c 3870     		strb	r0, [r7, #0]
 2094 093e 0848     		ldr	r0, .L1303
 2095              	.LVL292:
 2096 0940 2B70     		strb	r3, [r5, #0]
 2097 0942 FFF7FEFF 		bl	uart_transmit
 2098              	.LVL293:
 2099              	.LBE1903:
 2100              	.LBB1904:
 2101 0946 A179     		ldrb	r1, [r4, #6]	@ zero_extendqisi2
 2102              	.LVL294:
 2103 0948 3E78     		ldrb	r6, [r7, #0]	@ zero_extendqisi2
 2104 094a 2A78     		ldrb	r2, [r5, #0]	@ zero_extendqisi2
 2105 094c 8819     		adds	r0, r1, r6
 2106 094e C3B2     		uxtb	r3, r0
 2107 0950 9E18     		adds	r6, r3, r2
 2108              	.LVL295:
 2109 0952 0348     		ldr	r0, .L1303
 2110 0954 3B70     		strb	r3, [r7, #0]
 2111 0956 2E70     		strb	r6, [r5, #0]
 2112 0958 FFF7FEFF 		bl	uart_transmit
 2113              	.LVL296:
 2114              	.LBE1904:
 2115              	.LBB1905:
 2116 095c E179     		ldrb	r1, [r4, #7]	@ zero_extendqisi2
 2117 095e 03E0     		b	.L1304
 2118              	.L1305:
 2119              		.align	2
 2120              	.L1303:
 2121 0960 00000000 		.word	uart2
 2122 0964 00000000 		.word	guidance_h_pos_sp
 2123              	.L1304:
 2124              	.LVL297:
 2125 0968 3878     		ldrb	r0, [r7, #0]	@ zero_extendqisi2
 2126 096a 2A78     		ldrb	r2, [r5, #0]	@ zero_extendqisi2
 2127 096c 0B18     		adds	r3, r1, r0
 2128 096e DEB2     		uxtb	r6, r3
 2129 0970 B018     		adds	r0, r6, r2
 2130              	.LVL298:
 2131 0972 2870     		strb	r0, [r5, #0]
 2132 0974 6448     		ldr	r0, .L1306
 2133 0976 3E70     		strb	r6, [r7, #0]
 2134 0978 FFF7FEFF 		bl	uart_transmit
 2135              	.LVL299:
 2136              	.LBE1905:
 2137              	.LBB1906:
 2138 097c 2178     		ldrb	r1, [r4, #0]	@ zero_extendqisi2
 2139              	.LVL300:
 2140 097e 3B78     		ldrb	r3, [r7, #0]	@ zero_extendqisi2
 2141 0980 2A78     		ldrb	r2, [r5, #0]	@ zero_extendqisi2
 2142 0982 CE18     		adds	r6, r1, r3
 2143              	.LVL301:
 2144 0984 F0B2     		uxtb	r0, r6
 2145 0986 8318     		adds	r3, r0, r2
 2146              	.LVL302:
 2147 0988 3870     		strb	r0, [r7, #0]
 2148 098a 5F48     		ldr	r0, .L1306
 2149              	.LVL303:
 2150 098c 2B70     		strb	r3, [r5, #0]
 2151 098e FFF7FEFF 		bl	uart_transmit
 2152              	.LVL304:
 2153              	.LBE1906:
 2154              	.LBB1907:
 2155 0992 6178     		ldrb	r1, [r4, #1]	@ zero_extendqisi2
 2156              	.LVL305:
 2157 0994 3E78     		ldrb	r6, [r7, #0]	@ zero_extendqisi2
 2158 0996 2A78     		ldrb	r2, [r5, #0]	@ zero_extendqisi2
 2159 0998 8819     		adds	r0, r1, r6
 2160 099a C3B2     		uxtb	r3, r0
 2161 099c 9E18     		adds	r6, r3, r2
 2162              	.LVL306:
 2163 099e 5A48     		ldr	r0, .L1306
 2164 09a0 3B70     		strb	r3, [r7, #0]
 2165 09a2 2E70     		strb	r6, [r5, #0]
 2166 09a4 FFF7FEFF 		bl	uart_transmit
 2167              	.LVL307:
 2168              	.LBE1907:
 2169              	.LBB1908:
 2170 09a8 A178     		ldrb	r1, [r4, #2]	@ zero_extendqisi2
 2171              	.LVL308:
 2172 09aa 3878     		ldrb	r0, [r7, #0]	@ zero_extendqisi2
 2173 09ac 2A78     		ldrb	r2, [r5, #0]	@ zero_extendqisi2
 2174 09ae 0B18     		adds	r3, r1, r0
 2175 09b0 DEB2     		uxtb	r6, r3
 2176 09b2 B018     		adds	r0, r6, r2
 2177              	.LVL309:
 2178 09b4 2870     		strb	r0, [r5, #0]
 2179 09b6 5448     		ldr	r0, .L1306
 2180 09b8 3E70     		strb	r6, [r7, #0]
 2181 09ba FFF7FEFF 		bl	uart_transmit
 2182              	.LVL310:
 2183              	.LBE1908:
 2184              	.LBB1909:
 2185 09be E178     		ldrb	r1, [r4, #3]	@ zero_extendqisi2
 2186              	.LVL311:
 2187 09c0 3C78     		ldrb	r4, [r7, #0]	@ zero_extendqisi2
 2188              	.LVL312:
 2189 09c2 2A78     		ldrb	r2, [r5, #0]	@ zero_extendqisi2
 2190 09c4 0B19     		adds	r3, r1, r4
 2191 09c6 DEB2     		uxtb	r6, r3
 2192              	.LVL313:
 2193 09c8 B018     		adds	r0, r6, r2
 2194              	.LVL314:
 2195 09ca 2870     		strb	r0, [r5, #0]
 2196 09cc 4E48     		ldr	r0, .L1306
 2197 09ce 3E70     		strb	r6, [r7, #0]
 2198 09d0 FFF7FEFF 		bl	uart_transmit
 2199              	.LVL315:
 2200              	.LBE1909:
 2201              	.LBB1910:
 2202 09d4 3C78     		ldrb	r4, [r7, #0]	@ zero_extendqisi2
 2203 09d6 9DF81010 		ldrb	r1, [sp, #16]	@ zero_extendqisi2
 2204              	.LVL316:
 2205 09da 2A78     		ldrb	r2, [r5, #0]	@ zero_extendqisi2
 2206 09dc 0B19     		adds	r3, r1, r4
 2207 09de DEB2     		uxtb	r6, r3
 2208              	.LVL317:
 2209 09e0 B018     		adds	r0, r6, r2
 2210              	.LVL318:
 2211 09e2 2870     		strb	r0, [r5, #0]
 2212 09e4 4848     		ldr	r0, .L1306
 2213 09e6 3E70     		strb	r6, [r7, #0]
 2214 09e8 FFF7FEFF 		bl	uart_transmit
 2215              	.LVL319:
 2216              	.LBE1910:
 2217              	.LBB1911:
 2218 09ec 3C78     		ldrb	r4, [r7, #0]	@ zero_extendqisi2
 2219 09ee 9DF81110 		ldrb	r1, [sp, #17]	@ zero_extendqisi2
 2220              	.LVL320:
 2221 09f2 2A78     		ldrb	r2, [r5, #0]	@ zero_extendqisi2
 2222 09f4 0B19     		adds	r3, r1, r4
 2223 09f6 DEB2     		uxtb	r6, r3
 2224              	.LVL321:
 2225 09f8 B018     		adds	r0, r6, r2
 2226              	.LVL322:
 2227 09fa 2870     		strb	r0, [r5, #0]
 2228 09fc 4248     		ldr	r0, .L1306
 2229 09fe 3E70     		strb	r6, [r7, #0]
 2230 0a00 FFF7FEFF 		bl	uart_transmit
 2231              	.LVL323:
 2232              	.LBE1911:
 2233              	.LBB1912:
 2234 0a04 3C78     		ldrb	r4, [r7, #0]	@ zero_extendqisi2
 2235 0a06 9DF81210 		ldrb	r1, [sp, #18]	@ zero_extendqisi2
 2236              	.LVL324:
 2237 0a0a 2A78     		ldrb	r2, [r5, #0]	@ zero_extendqisi2
 2238 0a0c 0B19     		adds	r3, r1, r4
 2239 0a0e DEB2     		uxtb	r6, r3
 2240              	.LVL325:
 2241 0a10 B018     		adds	r0, r6, r2
 2242              	.LVL326:
 2243 0a12 2870     		strb	r0, [r5, #0]
 2244 0a14 3C48     		ldr	r0, .L1306
 2245 0a16 3E70     		strb	r6, [r7, #0]
 2246 0a18 FFF7FEFF 		bl	uart_transmit
 2247              	.LVL327:
 2248              	.LBE1912:
 2249              	.LBB1913:
 2250 0a1c 3C78     		ldrb	r4, [r7, #0]	@ zero_extendqisi2
 2251 0a1e 9DF81310 		ldrb	r1, [sp, #19]	@ zero_extendqisi2
 2252              	.LVL328:
 2253 0a22 2A78     		ldrb	r2, [r5, #0]	@ zero_extendqisi2
 2254 0a24 0B19     		adds	r3, r1, r4
 2255 0a26 DEB2     		uxtb	r6, r3
 2256              	.LVL329:
 2257 0a28 B018     		adds	r0, r6, r2
 2258              	.LVL330:
 2259              	.LBE1913:
 2260              	.LBB1914:
 2261 0a2a 384C     		ldr	r4, .L1306+4
 2262              	.LBE1914:
 2263              	.LBB1915:
 2264 0a2c 2870     		strb	r0, [r5, #0]
 2265 0a2e 3648     		ldr	r0, .L1306
 2266 0a30 3E70     		strb	r6, [r7, #0]
 2267 0a32 FFF7FEFF 		bl	uart_transmit
 2268              	.LVL331:
 2269              	.LBE1915:
 2270              	.LBB1916:
 2271 0a36 217A     		ldrb	r1, [r4, #8]	@ zero_extendqisi2
 2272              	.LVL332:
 2273 0a38 3B78     		ldrb	r3, [r7, #0]	@ zero_extendqisi2
 2274 0a3a 2A78     		ldrb	r2, [r5, #0]	@ zero_extendqisi2
 2275 0a3c CE18     		adds	r6, r1, r3
 2276              	.LVL333:
 2277 0a3e F0B2     		uxtb	r0, r6
 2278 0a40 8318     		adds	r3, r0, r2
 2279              	.LVL334:
 2280 0a42 3870     		strb	r0, [r7, #0]
 2281 0a44 3048     		ldr	r0, .L1306
 2282              	.LVL335:
 2283 0a46 2B70     		strb	r3, [r5, #0]
 2284 0a48 FFF7FEFF 		bl	uart_transmit
 2285              	.LVL336:
 2286              	.LBE1916:
 2287              	.LBB1917:
 2288 0a4c 617A     		ldrb	r1, [r4, #9]	@ zero_extendqisi2
 2289              	.LVL337:
 2290 0a4e 3E78     		ldrb	r6, [r7, #0]	@ zero_extendqisi2
 2291 0a50 2A78     		ldrb	r2, [r5, #0]	@ zero_extendqisi2
 2292 0a52 8819     		adds	r0, r1, r6
 2293 0a54 C3B2     		uxtb	r3, r0
 2294 0a56 9E18     		adds	r6, r3, r2
 2295              	.LVL338:
 2296 0a58 2B48     		ldr	r0, .L1306
 2297 0a5a 3B70     		strb	r3, [r7, #0]
 2298 0a5c 2E70     		strb	r6, [r5, #0]
 2299 0a5e FFF7FEFF 		bl	uart_transmit
 2300              	.LVL339:
 2301              	.LBE1917:
 2302              	.LBB1918:
 2303 0a62 A17A     		ldrb	r1, [r4, #10]	@ zero_extendqisi2
 2304              	.LVL340:
 2305 0a64 3878     		ldrb	r0, [r7, #0]	@ zero_extendqisi2
 2306 0a66 2A78     		ldrb	r2, [r5, #0]	@ zero_extendqisi2
 2307 0a68 0B18     		adds	r3, r1, r0
 2308 0a6a DEB2     		uxtb	r6, r3
 2309 0a6c B018     		adds	r0, r6, r2
 2310              	.LVL341:
 2311 0a6e 2870     		strb	r0, [r5, #0]
 2312 0a70 2548     		ldr	r0, .L1306
 2313 0a72 3E70     		strb	r6, [r7, #0]
 2314 0a74 FFF7FEFF 		bl	uart_transmit
 2315              	.LVL342:
 2316              	.LBE1918:
 2317              	.LBB1919:
 2318 0a78 E17A     		ldrb	r1, [r4, #11]	@ zero_extendqisi2
 2319              	.LVL343:
 2320 0a7a 3C78     		ldrb	r4, [r7, #0]	@ zero_extendqisi2
 2321              	.LVL344:
 2322 0a7c 2A78     		ldrb	r2, [r5, #0]	@ zero_extendqisi2
 2323 0a7e 0B19     		adds	r3, r1, r4
 2324 0a80 DEB2     		uxtb	r6, r3
 2325              	.LVL345:
 2326 0a82 B018     		adds	r0, r6, r2
 2327              	.LVL346:
 2328              	.LBE1919:
 2329              	.LBB1920:
 2330 0a84 224C     		ldr	r4, .L1306+8
 2331              	.LBE1920:
 2332              	.LBB1921:
 2333 0a86 2870     		strb	r0, [r5, #0]
 2334 0a88 1F48     		ldr	r0, .L1306
 2335 0a8a 3E70     		strb	r6, [r7, #0]
 2336 0a8c FFF7FEFF 		bl	uart_transmit
 2337              	.LVL347:
 2338              	.LBE1921:
 2339              	.LBB1922:
 2340 0a90 217B     		ldrb	r1, [r4, #12]	@ zero_extendqisi2
 2341              	.LVL348:
 2342 0a92 3B78     		ldrb	r3, [r7, #0]	@ zero_extendqisi2
 2343 0a94 2A78     		ldrb	r2, [r5, #0]	@ zero_extendqisi2
 2344 0a96 CE18     		adds	r6, r1, r3
 2345              	.LVL349:
 2346 0a98 F0B2     		uxtb	r0, r6
 2347 0a9a 8318     		adds	r3, r0, r2
 2348              	.LVL350:
 2349 0a9c 3870     		strb	r0, [r7, #0]
 2350 0a9e 1A48     		ldr	r0, .L1306
 2351              	.LVL351:
 2352 0aa0 2B70     		strb	r3, [r5, #0]
 2353 0aa2 FFF7FEFF 		bl	uart_transmit
 2354              	.LVL352:
 2355              	.LBE1922:
 2356              	.LBB1923:
 2357 0aa6 617B     		ldrb	r1, [r4, #13]	@ zero_extendqisi2
 2358              	.LVL353:
 2359 0aa8 3E78     		ldrb	r6, [r7, #0]	@ zero_extendqisi2
 2360 0aaa 2A78     		ldrb	r2, [r5, #0]	@ zero_extendqisi2
 2361 0aac 8819     		adds	r0, r1, r6
 2362 0aae C3B2     		uxtb	r3, r0
 2363 0ab0 9E18     		adds	r6, r3, r2
 2364              	.LVL354:
 2365 0ab2 1548     		ldr	r0, .L1306
 2366 0ab4 3B70     		strb	r3, [r7, #0]
 2367 0ab6 2E70     		strb	r6, [r5, #0]
 2368 0ab8 FFF7FEFF 		bl	uart_transmit
 2369              	.LVL355:
 2370              	.LBE1923:
 2371              	.LBB1924:
 2372 0abc A17B     		ldrb	r1, [r4, #14]	@ zero_extendqisi2
 2373              	.LVL356:
 2374 0abe 3878     		ldrb	r0, [r7, #0]	@ zero_extendqisi2
 2375 0ac0 2A78     		ldrb	r2, [r5, #0]	@ zero_extendqisi2
 2376 0ac2 0B18     		adds	r3, r1, r0
 2377 0ac4 DEB2     		uxtb	r6, r3
 2378 0ac6 B018     		adds	r0, r6, r2
 2379              	.LVL357:
 2380 0ac8 2870     		strb	r0, [r5, #0]
 2381 0aca 0F48     		ldr	r0, .L1306
 2382 0acc 3E70     		strb	r6, [r7, #0]
 2383 0ace FFF7FEFF 		bl	uart_transmit
 2384              	.LVL358:
 2385              	.LBE1924:
 2386              	.LBB1925:
 2387 0ad2 E17B     		ldrb	r1, [r4, #15]	@ zero_extendqisi2
 2388              	.LVL359:
 2389 0ad4 3C78     		ldrb	r4, [r7, #0]	@ zero_extendqisi2
 2390              	.LVL360:
 2391 0ad6 2A78     		ldrb	r2, [r5, #0]	@ zero_extendqisi2
 2392 0ad8 0B19     		adds	r3, r1, r4
 2393 0ada DEB2     		uxtb	r6, r3
 2394              	.LVL361:
 2395 0adc B018     		adds	r0, r6, r2
 2396              	.LVL362:
 2397              	.LBE1925:
 2398              	.LBB1926:
 2399 0ade 0D4C     		ldr	r4, .L1306+12
 2400              	.LBE1926:
 2401              	.LBB1927:
 2402 0ae0 2870     		strb	r0, [r5, #0]
 2403 0ae2 0948     		ldr	r0, .L1306
 2404 0ae4 3E70     		strb	r6, [r7, #0]
 2405 0ae6 FFF7FEFF 		bl	uart_transmit
 2406              	.LVL363:
 2407              	.LBE1927:
 2408              	.LBB1928:
 2409 0aea 3B78     		ldrb	r3, [r7, #0]	@ zero_extendqisi2
 2410 0aec 2178     		ldrb	r1, [r4, #0]	@ zero_extendqisi2
 2411              	.LVL364:
 2412 0aee 2A78     		ldrb	r2, [r5, #0]	@ zero_extendqisi2
 2413 0af0 CE18     		adds	r6, r1, r3
 2414              	.LVL365:
 2415 0af2 F0B2     		uxtb	r0, r6
 2416 0af4 8318     		adds	r3, r0, r2
 2417              	.LVL366:
 2418 0af6 3870     		strb	r0, [r7, #0]
 2419 0af8 0348     		ldr	r0, .L1306
 2420              	.LVL367:
 2421 0afa 2B70     		strb	r3, [r5, #0]
 2422 0afc FFF7FEFF 		bl	uart_transmit
 2423              	.LVL368:
 2424              	.LBE1928:
 2425              	.LBB1929:
 2426 0b00 6178     		ldrb	r1, [r4, #1]	@ zero_extendqisi2
 2427              	.LVL369:
 2428 0b02 00F08ABD 		b	.L1129
 2429              	.L1307:
 2430 0b06 00BF     		.align	2
 2431              	.L1306:
 2432 0b08 00000000 		.word	uart2
 2433 0b0c 00000000 		.word	guidance_h_command_body
 2434 0b10 00000000 		.word	stabilization_cmd
 2435 0b14 00000000 		.word	autopilot_flight_time
 2436              	.LVL370:
 2437              	.L88:
 2438              	.LBE1929:
 2439              	.LBE1860:
 2440 0b18 062E     		cmp	r6, #6
 2441 0b1a 40F0B983 		bne	.L92
 2442              	.LBB1930:
 2443 0b1e B148     		ldr	r0, .L1308
 2444 0b20 3E21     		movs	r1, #62
 2445 0b22 FFF7FEFF 		bl	uart_check_free_space
 2446              	.LVL371:
 2447 0b26 0028     		cmp	r0, #0
 2448 0b28 00F0C882 		beq	.L93
 2449 0b2c AE4E     		ldr	r6, .L1308+4
 2450 0b2e AF4C     		ldr	r4, .L1308+8
 2451 0b30 3288     		ldrh	r2, [r6, #0]
 2452 0b32 2388     		ldrh	r3, [r4, #0]
 2453 0b34 501C     		adds	r0, r2, #1
 2454 0b36 3E33     		adds	r3, r3, #62
 2455 0b38 3080     		strh	r0, [r6, #0]	@ movhi
 2456              	.LBB1931:
 2457 0b3a 9921     		movs	r1, #153
 2458 0b3c A948     		ldr	r0, .L1308
 2459              	.LBE1931:
 2460 0b3e 2380     		strh	r3, [r4, #0]	@ movhi
 2461 0b40 AB4C     		ldr	r4, .L1308+12
 2462              	.LBB1932:
 2463 0b42 FFF7FEFF 		bl	uart_transmit
 2464              	.LVL372:
 2465 0b46 3E21     		movs	r1, #62
 2466 0b48 A648     		ldr	r0, .L1308
 2467              	.LBE1932:
 2468 0b4a AA4F     		ldr	r7, .L1308+16
 2469              	.LBB1933:
 2470 0b4c FFF7FEFF 		bl	uart_transmit
 2471              	.LVL373:
 2472              	.LBE1933:
 2473 0b50 7D21     		movs	r1, #125
 2474 0b52 3F25     		movs	r5, #63
 2475 0b54 2170     		strb	r1, [r4, #0]
 2476 0b56 A348     		ldr	r0, .L1308
 2477 0b58 0121     		movs	r1, #1
 2478 0b5a 3D70     		strb	r5, [r7, #0]
 2479 0b5c FFF7FEFF 		bl	uart_transmit
 2480              	.LVL374:
 2481 0b60 3B78     		ldrb	r3, [r7, #0]	@ zero_extendqisi2
 2482 0b62 2278     		ldrb	r2, [r4, #0]	@ zero_extendqisi2
 2483 0b64 653B     		subs	r3, r3, #101
 2484 0b66 DEB2     		uxtb	r6, r3
 2485              	.LBB1934:
 2486 0b68 A34D     		ldr	r5, .L1308+20
 2487              	.LBE1934:
 2488 0b6a B018     		adds	r0, r6, r2
 2489              	.LVL375:
 2490 0b6c 2070     		strb	r0, [r4, #0]
 2491 0b6e 9B21     		movs	r1, #155
 2492 0b70 9C48     		ldr	r0, .L1308
 2493 0b72 3E70     		strb	r6, [r7, #0]
 2494 0b74 FFF7FEFF 		bl	uart_transmit
 2495              	.LVL376:
 2496              	.LBB1935:
 2497 0b78 3B78     		ldrb	r3, [r7, #0]	@ zero_extendqisi2
 2498 0b7a 2978     		ldrb	r1, [r5, #0]	@ zero_extendqisi2
 2499              	.LVL377:
 2500 0b7c 2278     		ldrb	r2, [r4, #0]	@ zero_extendqisi2
 2501 0b7e CE18     		adds	r6, r1, r3
 2502              	.LVL378:
 2503 0b80 F0B2     		uxtb	r0, r6
 2504 0b82 8318     		adds	r3, r0, r2
 2505              	.LVL379:
 2506 0b84 3870     		strb	r0, [r7, #0]
 2507 0b86 9748     		ldr	r0, .L1308
 2508              	.LVL380:
 2509 0b88 2370     		strb	r3, [r4, #0]
 2510 0b8a FFF7FEFF 		bl	uart_transmit
 2511              	.LVL381:
 2512              	.LBE1935:
 2513              	.LBB1936:
 2514 0b8e 3E78     		ldrb	r6, [r7, #0]	@ zero_extendqisi2
 2515 0b90 6978     		ldrb	r1, [r5, #1]	@ zero_extendqisi2
 2516              	.LVL382:
 2517 0b92 2278     		ldrb	r2, [r4, #0]	@ zero_extendqisi2
 2518 0b94 8819     		adds	r0, r1, r6
 2519 0b96 C3B2     		uxtb	r3, r0
 2520 0b98 9E18     		adds	r6, r3, r2
 2521              	.LVL383:
 2522 0b9a 9248     		ldr	r0, .L1308
 2523 0b9c 3B70     		strb	r3, [r7, #0]
 2524 0b9e 2670     		strb	r6, [r4, #0]
 2525 0ba0 FFF7FEFF 		bl	uart_transmit
 2526              	.LVL384:
 2527              	.LBE1936:
 2528              	.LBB1937:
 2529 0ba4 3878     		ldrb	r0, [r7, #0]	@ zero_extendqisi2
 2530 0ba6 A978     		ldrb	r1, [r5, #2]	@ zero_extendqisi2
 2531              	.LVL385:
 2532 0ba8 2278     		ldrb	r2, [r4, #0]	@ zero_extendqisi2
 2533 0baa 0B18     		adds	r3, r1, r0
 2534 0bac DEB2     		uxtb	r6, r3
 2535 0bae B018     		adds	r0, r6, r2
 2536              	.LVL386:
 2537 0bb0 2070     		strb	r0, [r4, #0]
 2538 0bb2 8C48     		ldr	r0, .L1308
 2539 0bb4 3E70     		strb	r6, [r7, #0]
 2540 0bb6 FFF7FEFF 		bl	uart_transmit
 2541              	.LVL387:
 2542              	.LBE1937:
 2543              	.LBB1938:
 2544 0bba 3B78     		ldrb	r3, [r7, #0]	@ zero_extendqisi2
 2545 0bbc E978     		ldrb	r1, [r5, #3]	@ zero_extendqisi2
 2546              	.LVL388:
 2547 0bbe 2278     		ldrb	r2, [r4, #0]	@ zero_extendqisi2
 2548 0bc0 CE18     		adds	r6, r1, r3
 2549              	.LVL389:
 2550 0bc2 F0B2     		uxtb	r0, r6
 2551 0bc4 8318     		adds	r3, r0, r2
 2552              	.LVL390:
 2553 0bc6 3870     		strb	r0, [r7, #0]
 2554 0bc8 8648     		ldr	r0, .L1308
 2555              	.LVL391:
 2556 0bca 2370     		strb	r3, [r4, #0]
 2557 0bcc FFF7FEFF 		bl	uart_transmit
 2558              	.LVL392:
 2559              	.LBE1938:
 2560              	.LBB1939:
 2561 0bd0 3E78     		ldrb	r6, [r7, #0]	@ zero_extendqisi2
 2562 0bd2 2979     		ldrb	r1, [r5, #4]	@ zero_extendqisi2
 2563              	.LVL393:
 2564 0bd4 2278     		ldrb	r2, [r4, #0]	@ zero_extendqisi2
 2565 0bd6 8819     		adds	r0, r1, r6
 2566 0bd8 C3B2     		uxtb	r3, r0
 2567 0bda 9E18     		adds	r6, r3, r2
 2568              	.LVL394:
 2569 0bdc 8148     		ldr	r0, .L1308
 2570 0bde 3B70     		strb	r3, [r7, #0]
 2571 0be0 2670     		strb	r6, [r4, #0]
 2572 0be2 FFF7FEFF 		bl	uart_transmit
 2573              	.LVL395:
 2574              	.LBE1939:
 2575              	.LBB1940:
 2576 0be6 3878     		ldrb	r0, [r7, #0]	@ zero_extendqisi2
 2577 0be8 6979     		ldrb	r1, [r5, #5]	@ zero_extendqisi2
 2578              	.LVL396:
 2579 0bea 2278     		ldrb	r2, [r4, #0]	@ zero_extendqisi2
 2580 0bec 0B18     		adds	r3, r1, r0
 2581 0bee DEB2     		uxtb	r6, r3
 2582 0bf0 B018     		adds	r0, r6, r2
 2583              	.LVL397:
 2584 0bf2 2070     		strb	r0, [r4, #0]
 2585 0bf4 7B48     		ldr	r0, .L1308
 2586 0bf6 3E70     		strb	r6, [r7, #0]
 2587 0bf8 FFF7FEFF 		bl	uart_transmit
 2588              	.LVL398:
 2589              	.LBE1940:
 2590              	.LBB1941:
 2591 0bfc 3B78     		ldrb	r3, [r7, #0]	@ zero_extendqisi2
 2592 0bfe A979     		ldrb	r1, [r5, #6]	@ zero_extendqisi2
 2593              	.LVL399:
 2594 0c00 2278     		ldrb	r2, [r4, #0]	@ zero_extendqisi2
 2595 0c02 CE18     		adds	r6, r1, r3
 2596              	.LVL400:
 2597 0c04 F0B2     		uxtb	r0, r6
 2598 0c06 8318     		adds	r3, r0, r2
 2599              	.LVL401:
 2600 0c08 3870     		strb	r0, [r7, #0]
 2601 0c0a 7648     		ldr	r0, .L1308
 2602              	.LVL402:
 2603 0c0c 2370     		strb	r3, [r4, #0]
 2604 0c0e FFF7FEFF 		bl	uart_transmit
 2605              	.LVL403:
 2606              	.LBE1941:
 2607              	.LBB1942:
 2608 0c12 3E78     		ldrb	r6, [r7, #0]	@ zero_extendqisi2
 2609 0c14 E979     		ldrb	r1, [r5, #7]	@ zero_extendqisi2
 2610              	.LVL404:
 2611 0c16 2278     		ldrb	r2, [r4, #0]	@ zero_extendqisi2
 2612 0c18 8819     		adds	r0, r1, r6
 2613 0c1a C3B2     		uxtb	r3, r0
 2614 0c1c 9E18     		adds	r6, r3, r2
 2615              	.LVL405:
 2616 0c1e 7148     		ldr	r0, .L1308
 2617 0c20 3B70     		strb	r3, [r7, #0]
 2618 0c22 2670     		strb	r6, [r4, #0]
 2619 0c24 FFF7FEFF 		bl	uart_transmit
 2620              	.LVL406:
 2621              	.LBE1942:
 2622              	.LBB1943:
 2623 0c28 3878     		ldrb	r0, [r7, #0]	@ zero_extendqisi2
 2624 0c2a 297A     		ldrb	r1, [r5, #8]	@ zero_extendqisi2
 2625              	.LVL407:
 2626 0c2c 2278     		ldrb	r2, [r4, #0]	@ zero_extendqisi2
 2627 0c2e 0B18     		adds	r3, r1, r0
 2628 0c30 DEB2     		uxtb	r6, r3
 2629 0c32 B018     		adds	r0, r6, r2
 2630              	.LVL408:
 2631 0c34 2070     		strb	r0, [r4, #0]
 2632 0c36 6B48     		ldr	r0, .L1308
 2633 0c38 3E70     		strb	r6, [r7, #0]
 2634 0c3a FFF7FEFF 		bl	uart_transmit
 2635              	.LVL409:
 2636              	.LBE1943:
 2637              	.LBB1944:
 2638 0c3e 3B78     		ldrb	r3, [r7, #0]	@ zero_extendqisi2
 2639 0c40 697A     		ldrb	r1, [r5, #9]	@ zero_extendqisi2
 2640              	.LVL410:
 2641 0c42 2278     		ldrb	r2, [r4, #0]	@ zero_extendqisi2
 2642 0c44 CE18     		adds	r6, r1, r3
 2643              	.LVL411:
 2644 0c46 F0B2     		uxtb	r0, r6
 2645 0c48 8318     		adds	r3, r0, r2
 2646              	.LVL412:
 2647 0c4a 3870     		strb	r0, [r7, #0]
 2648 0c4c 6548     		ldr	r0, .L1308
 2649              	.LVL413:
 2650 0c4e 2370     		strb	r3, [r4, #0]
 2651 0c50 FFF7FEFF 		bl	uart_transmit
 2652              	.LVL414:
 2653              	.LBE1944:
 2654              	.LBB1945:
 2655 0c54 3E78     		ldrb	r6, [r7, #0]	@ zero_extendqisi2
 2656 0c56 A97A     		ldrb	r1, [r5, #10]	@ zero_extendqisi2
 2657              	.LVL415:
 2658 0c58 2278     		ldrb	r2, [r4, #0]	@ zero_extendqisi2
 2659 0c5a 8819     		adds	r0, r1, r6
 2660 0c5c C3B2     		uxtb	r3, r0
 2661 0c5e 9E18     		adds	r6, r3, r2
 2662              	.LVL416:
 2663 0c60 6048     		ldr	r0, .L1308
 2664 0c62 3B70     		strb	r3, [r7, #0]
 2665 0c64 2670     		strb	r6, [r4, #0]
 2666 0c66 FFF7FEFF 		bl	uart_transmit
 2667              	.LVL417:
 2668              	.LBE1945:
 2669              	.LBB1946:
 2670 0c6a 3878     		ldrb	r0, [r7, #0]	@ zero_extendqisi2
 2671 0c6c E97A     		ldrb	r1, [r5, #11]	@ zero_extendqisi2
 2672              	.LVL418:
 2673 0c6e 2278     		ldrb	r2, [r4, #0]	@ zero_extendqisi2
 2674 0c70 0B18     		adds	r3, r1, r0
 2675 0c72 DEB2     		uxtb	r6, r3
 2676 0c74 B018     		adds	r0, r6, r2
 2677              	.LVL419:
 2678 0c76 2070     		strb	r0, [r4, #0]
 2679 0c78 5A48     		ldr	r0, .L1308
 2680 0c7a 3E70     		strb	r6, [r7, #0]
 2681 0c7c FFF7FEFF 		bl	uart_transmit
 2682              	.LVL420:
 2683              	.LBE1946:
 2684              	.LBB1947:
 2685 0c80 3B78     		ldrb	r3, [r7, #0]	@ zero_extendqisi2
 2686 0c82 297C     		ldrb	r1, [r5, #16]	@ zero_extendqisi2
 2687              	.LVL421:
 2688 0c84 2278     		ldrb	r2, [r4, #0]	@ zero_extendqisi2
 2689 0c86 CE18     		adds	r6, r1, r3
 2690              	.LVL422:
 2691 0c88 F0B2     		uxtb	r0, r6
 2692 0c8a 8318     		adds	r3, r0, r2
 2693              	.LVL423:
 2694 0c8c 3870     		strb	r0, [r7, #0]
 2695 0c8e 5548     		ldr	r0, .L1308
 2696              	.LVL424:
 2697 0c90 2370     		strb	r3, [r4, #0]
 2698 0c92 FFF7FEFF 		bl	uart_transmit
 2699              	.LVL425:
 2700              	.LBE1947:
 2701              	.LBB1948:
 2702 0c96 3E78     		ldrb	r6, [r7, #0]	@ zero_extendqisi2
 2703 0c98 697C     		ldrb	r1, [r5, #17]	@ zero_extendqisi2
 2704              	.LVL426:
 2705 0c9a 2278     		ldrb	r2, [r4, #0]	@ zero_extendqisi2
 2706 0c9c 8819     		adds	r0, r1, r6
 2707 0c9e C3B2     		uxtb	r3, r0
 2708 0ca0 9E18     		adds	r6, r3, r2
 2709              	.LVL427:
 2710 0ca2 5048     		ldr	r0, .L1308
 2711 0ca4 3B70     		strb	r3, [r7, #0]
 2712 0ca6 2670     		strb	r6, [r4, #0]
 2713 0ca8 FFF7FEFF 		bl	uart_transmit
 2714              	.LVL428:
 2715              	.LBE1948:
 2716              	.LBB1949:
 2717 0cac 3878     		ldrb	r0, [r7, #0]	@ zero_extendqisi2
 2718 0cae A97C     		ldrb	r1, [r5, #18]	@ zero_extendqisi2
 2719              	.LVL429:
 2720 0cb0 2278     		ldrb	r2, [r4, #0]	@ zero_extendqisi2
 2721 0cb2 0B18     		adds	r3, r1, r0
 2722 0cb4 DEB2     		uxtb	r6, r3
 2723 0cb6 B018     		adds	r0, r6, r2
 2724              	.LVL430:
 2725 0cb8 2070     		strb	r0, [r4, #0]
 2726 0cba 4A48     		ldr	r0, .L1308
 2727 0cbc 3E70     		strb	r6, [r7, #0]
 2728 0cbe FFF7FEFF 		bl	uart_transmit
 2729              	.LVL431:
 2730              	.LBE1949:
 2731              	.LBB1950:
 2732 0cc2 3B78     		ldrb	r3, [r7, #0]	@ zero_extendqisi2
 2733 0cc4 E97C     		ldrb	r1, [r5, #19]	@ zero_extendqisi2
 2734              	.LVL432:
 2735 0cc6 2278     		ldrb	r2, [r4, #0]	@ zero_extendqisi2
 2736 0cc8 CE18     		adds	r6, r1, r3
 2737              	.LVL433:
 2738 0cca F0B2     		uxtb	r0, r6
 2739 0ccc 8318     		adds	r3, r0, r2
 2740              	.LVL434:
 2741 0cce 3870     		strb	r0, [r7, #0]
 2742 0cd0 4448     		ldr	r0, .L1308
 2743              	.LVL435:
 2744 0cd2 2370     		strb	r3, [r4, #0]
 2745 0cd4 FFF7FEFF 		bl	uart_transmit
 2746              	.LVL436:
 2747              	.LBE1950:
 2748              	.LBB1951:
 2749 0cd8 3E78     		ldrb	r6, [r7, #0]	@ zero_extendqisi2
 2750 0cda 297B     		ldrb	r1, [r5, #12]	@ zero_extendqisi2
 2751              	.LVL437:
 2752 0cdc 2278     		ldrb	r2, [r4, #0]	@ zero_extendqisi2
 2753 0cde 8819     		adds	r0, r1, r6
 2754 0ce0 C3B2     		uxtb	r3, r0
 2755 0ce2 9E18     		adds	r6, r3, r2
 2756              	.LVL438:
 2757 0ce4 3F48     		ldr	r0, .L1308
 2758 0ce6 3B70     		strb	r3, [r7, #0]
 2759 0ce8 2670     		strb	r6, [r4, #0]
 2760 0cea FFF7FEFF 		bl	uart_transmit
 2761              	.LVL439:
 2762              	.LBE1951:
 2763              	.LBB1952:
 2764 0cee 3878     		ldrb	r0, [r7, #0]	@ zero_extendqisi2
 2765 0cf0 697B     		ldrb	r1, [r5, #13]	@ zero_extendqisi2
 2766              	.LVL440:
 2767 0cf2 2278     		ldrb	r2, [r4, #0]	@ zero_extendqisi2
 2768 0cf4 0B18     		adds	r3, r1, r0
 2769 0cf6 DEB2     		uxtb	r6, r3
 2770 0cf8 B018     		adds	r0, r6, r2
 2771              	.LVL441:
 2772 0cfa 2070     		strb	r0, [r4, #0]
 2773 0cfc 3948     		ldr	r0, .L1308
 2774 0cfe 3E70     		strb	r6, [r7, #0]
 2775 0d00 FFF7FEFF 		bl	uart_transmit
 2776              	.LVL442:
 2777              	.LBE1952:
 2778              	.LBB1953:
 2779 0d04 3B78     		ldrb	r3, [r7, #0]	@ zero_extendqisi2
 2780 0d06 A97B     		ldrb	r1, [r5, #14]	@ zero_extendqisi2
 2781              	.LVL443:
 2782 0d08 2278     		ldrb	r2, [r4, #0]	@ zero_extendqisi2
 2783 0d0a CE18     		adds	r6, r1, r3
 2784              	.LVL444:
 2785 0d0c F0B2     		uxtb	r0, r6
 2786 0d0e 8318     		adds	r3, r0, r2
 2787              	.LVL445:
 2788 0d10 3870     		strb	r0, [r7, #0]
 2789 0d12 3448     		ldr	r0, .L1308
 2790              	.LVL446:
 2791 0d14 2370     		strb	r3, [r4, #0]
 2792 0d16 FFF7FEFF 		bl	uart_transmit
 2793              	.LVL447:
 2794              	.LBE1953:
 2795              	.LBB1954:
 2796 0d1a 3E78     		ldrb	r6, [r7, #0]	@ zero_extendqisi2
 2797 0d1c E97B     		ldrb	r1, [r5, #15]	@ zero_extendqisi2
 2798              	.LVL448:
 2799 0d1e 2278     		ldrb	r2, [r4, #0]	@ zero_extendqisi2
 2800 0d20 8819     		adds	r0, r1, r6
 2801 0d22 C3B2     		uxtb	r3, r0
 2802 0d24 9E18     		adds	r6, r3, r2
 2803              	.LVL449:
 2804 0d26 2F48     		ldr	r0, .L1308
 2805 0d28 3B70     		strb	r3, [r7, #0]
 2806 0d2a 2670     		strb	r6, [r4, #0]
 2807 0d2c FFF7FEFF 		bl	uart_transmit
 2808              	.LVL450:
 2809              	.LBE1954:
 2810              	.LBB1955:
 2811 0d30 3878     		ldrb	r0, [r7, #0]	@ zero_extendqisi2
 2812 0d32 297D     		ldrb	r1, [r5, #20]	@ zero_extendqisi2
 2813              	.LVL451:
 2814 0d34 2278     		ldrb	r2, [r4, #0]	@ zero_extendqisi2
 2815 0d36 0B18     		adds	r3, r1, r0
 2816 0d38 DEB2     		uxtb	r6, r3
 2817 0d3a B018     		adds	r0, r6, r2
 2818              	.LVL452:
 2819 0d3c 2070     		strb	r0, [r4, #0]
 2820 0d3e 2948     		ldr	r0, .L1308
 2821 0d40 3E70     		strb	r6, [r7, #0]
 2822 0d42 FFF7FEFF 		bl	uart_transmit
 2823              	.LVL453:
 2824              	.LBE1955:
 2825              	.LBB1956:
 2826 0d46 3B78     		ldrb	r3, [r7, #0]	@ zero_extendqisi2
 2827 0d48 697D     		ldrb	r1, [r5, #21]	@ zero_extendqisi2
 2828              	.LVL454:
 2829 0d4a 2278     		ldrb	r2, [r4, #0]	@ zero_extendqisi2
 2830 0d4c CE18     		adds	r6, r1, r3
 2831              	.LVL455:
 2832 0d4e F0B2     		uxtb	r0, r6
 2833 0d50 8318     		adds	r3, r0, r2
 2834              	.LVL456:
 2835 0d52 3870     		strb	r0, [r7, #0]
 2836 0d54 2348     		ldr	r0, .L1308
 2837              	.LVL457:
 2838 0d56 2370     		strb	r3, [r4, #0]
 2839 0d58 FFF7FEFF 		bl	uart_transmit
 2840              	.LVL458:
 2841              	.LBE1956:
 2842              	.LBB1957:
 2843 0d5c 3E78     		ldrb	r6, [r7, #0]	@ zero_extendqisi2
 2844 0d5e A97D     		ldrb	r1, [r5, #22]	@ zero_extendqisi2
 2845              	.LVL459:
 2846 0d60 2278     		ldrb	r2, [r4, #0]	@ zero_extendqisi2
 2847 0d62 8819     		adds	r0, r1, r6
 2848 0d64 C3B2     		uxtb	r3, r0
 2849 0d66 9E18     		adds	r6, r3, r2
 2850              	.LVL460:
 2851 0d68 1E48     		ldr	r0, .L1308
 2852 0d6a 3B70     		strb	r3, [r7, #0]
 2853 0d6c 2670     		strb	r6, [r4, #0]
 2854 0d6e FFF7FEFF 		bl	uart_transmit
 2855              	.LVL461:
 2856              	.LBE1957:
 2857              	.LBB1958:
 2858 0d72 3878     		ldrb	r0, [r7, #0]	@ zero_extendqisi2
 2859 0d74 E97D     		ldrb	r1, [r5, #23]	@ zero_extendqisi2
 2860              	.LVL462:
 2861 0d76 2278     		ldrb	r2, [r4, #0]	@ zero_extendqisi2
 2862 0d78 0B18     		adds	r3, r1, r0
 2863 0d7a DEB2     		uxtb	r6, r3
 2864 0d7c B018     		adds	r0, r6, r2
 2865              	.LVL463:
 2866 0d7e 2070     		strb	r0, [r4, #0]
 2867 0d80 1848     		ldr	r0, .L1308
 2868 0d82 3E70     		strb	r6, [r7, #0]
 2869 0d84 FFF7FEFF 		bl	uart_transmit
 2870              	.LVL464:
 2871              	.LBE1958:
 2872              	.LBB1959:
 2873 0d88 3B78     		ldrb	r3, [r7, #0]	@ zero_extendqisi2
 2874 0d8a 95F82810 		ldrb	r1, [r5, #40]	@ zero_extendqisi2
 2875              	.LVL465:
 2876 0d8e 2278     		ldrb	r2, [r4, #0]	@ zero_extendqisi2
 2877 0d90 CE18     		adds	r6, r1, r3
 2878              	.LVL466:
 2879 0d92 F0B2     		uxtb	r0, r6
 2880 0d94 8318     		adds	r3, r0, r2
 2881              	.LVL467:
 2882 0d96 3870     		strb	r0, [r7, #0]
 2883 0d98 1248     		ldr	r0, .L1308
 2884              	.LVL468:
 2885 0d9a 2370     		strb	r3, [r4, #0]
 2886 0d9c FFF7FEFF 		bl	uart_transmit
 2887              	.LVL469:
 2888              	.LBE1959:
 2889              	.LBB1960:
 2890 0da0 3E78     		ldrb	r6, [r7, #0]	@ zero_extendqisi2
 2891 0da2 95F82910 		ldrb	r1, [r5, #41]	@ zero_extendqisi2
 2892              	.LVL470:
 2893 0da6 2278     		ldrb	r2, [r4, #0]	@ zero_extendqisi2
 2894 0da8 8819     		adds	r0, r1, r6
 2895 0daa C3B2     		uxtb	r3, r0
 2896 0dac 9E18     		adds	r6, r3, r2
 2897              	.LVL471:
 2898 0dae 0D48     		ldr	r0, .L1308
 2899 0db0 3B70     		strb	r3, [r7, #0]
 2900 0db2 2670     		strb	r6, [r4, #0]
 2901 0db4 FFF7FEFF 		bl	uart_transmit
 2902              	.LVL472:
 2903              	.LBE1960:
 2904              	.LBB1961:
 2905 0db8 3878     		ldrb	r0, [r7, #0]	@ zero_extendqisi2
 2906 0dba 95F82A10 		ldrb	r1, [r5, #42]	@ zero_extendqisi2
 2907              	.LVL473:
 2908 0dbe 2278     		ldrb	r2, [r4, #0]	@ zero_extendqisi2
 2909 0dc0 0B18     		adds	r3, r1, r0
 2910 0dc2 DEB2     		uxtb	r6, r3
 2911 0dc4 B018     		adds	r0, r6, r2
 2912              	.LVL474:
 2913 0dc6 2070     		strb	r0, [r4, #0]
 2914 0dc8 0648     		ldr	r0, .L1308
 2915 0dca 3E70     		strb	r6, [r7, #0]
 2916 0dcc FFF7FEFF 		bl	uart_transmit
 2917              	.LVL475:
 2918              	.LBE1961:
 2919              	.LBB1962:
 2920 0dd0 3B78     		ldrb	r3, [r7, #0]	@ zero_extendqisi2
 2921 0dd2 95F82B10 		ldrb	r1, [r5, #43]	@ zero_extendqisi2
 2922              	.LVL476:
 2923 0dd6 2278     		ldrb	r2, [r4, #0]	@ zero_extendqisi2
 2924 0dd8 CE18     		adds	r6, r1, r3
 2925              	.LVL477:
 2926 0dda F0B2     		uxtb	r0, r6
 2927 0ddc 8318     		adds	r3, r0, r2
 2928              	.LVL478:
 2929 0dde 3870     		strb	r0, [r7, #0]
 2930 0de0 0CE0     		b	.L1309
 2931              	.L1310:
 2932 0de2 00BF     		.align	2
 2933              	.L1308:
 2934 0de4 00000000 		.word	uart2
 2935 0de8 00000000 		.word	downlink_nb_msgs
 2936 0dec 00000000 		.word	downlink_nb_bytes
 2937 0df0 00000000 		.word	ck_b
 2938 0df4 00000000 		.word	ck_a
 2939 0df8 00000000 		.word	gps
 2940              	.L1309:
 2941 0dfc AE48     		ldr	r0, .L1311
 2942              	.LVL479:
 2943 0dfe 2370     		strb	r3, [r4, #0]
 2944 0e00 FFF7FEFF 		bl	uart_transmit
 2945              	.LVL480:
 2946              	.LBE1962:
 2947              	.LBB1963:
 2948 0e04 3E78     		ldrb	r6, [r7, #0]	@ zero_extendqisi2
 2949 0e06 95F82C10 		ldrb	r1, [r5, #44]	@ zero_extendqisi2
 2950              	.LVL481:
 2951 0e0a 2278     		ldrb	r2, [r4, #0]	@ zero_extendqisi2
 2952 0e0c 8819     		adds	r0, r1, r6
 2953 0e0e C3B2     		uxtb	r3, r0
 2954 0e10 9E18     		adds	r6, r3, r2
 2955              	.LVL482:
 2956 0e12 A948     		ldr	r0, .L1311
 2957 0e14 3B70     		strb	r3, [r7, #0]
 2958 0e16 2670     		strb	r6, [r4, #0]
 2959 0e18 FFF7FEFF 		bl	uart_transmit
 2960              	.LVL483:
 2961              	.LBE1963:
 2962              	.LBB1964:
 2963 0e1c 3878     		ldrb	r0, [r7, #0]	@ zero_extendqisi2
 2964 0e1e 95F82D10 		ldrb	r1, [r5, #45]	@ zero_extendqisi2
 2965              	.LVL484:
 2966 0e22 2278     		ldrb	r2, [r4, #0]	@ zero_extendqisi2
 2967 0e24 0B18     		adds	r3, r1, r0
 2968 0e26 DEB2     		uxtb	r6, r3
 2969 0e28 B018     		adds	r0, r6, r2
 2970              	.LVL485:
 2971 0e2a 2070     		strb	r0, [r4, #0]
 2972 0e2c A248     		ldr	r0, .L1311
 2973 0e2e 3E70     		strb	r6, [r7, #0]
 2974 0e30 FFF7FEFF 		bl	uart_transmit
 2975              	.LVL486:
 2976              	.LBE1964:
 2977              	.LBB1965:
 2978 0e34 3B78     		ldrb	r3, [r7, #0]	@ zero_extendqisi2
 2979 0e36 95F82E10 		ldrb	r1, [r5, #46]	@ zero_extendqisi2
 2980              	.LVL487:
 2981 0e3a 2278     		ldrb	r2, [r4, #0]	@ zero_extendqisi2
 2982 0e3c CE18     		adds	r6, r1, r3
 2983              	.LVL488:
 2984 0e3e F0B2     		uxtb	r0, r6
 2985 0e40 8318     		adds	r3, r0, r2
 2986              	.LVL489:
 2987 0e42 3870     		strb	r0, [r7, #0]
 2988 0e44 9C48     		ldr	r0, .L1311
 2989              	.LVL490:
 2990 0e46 2370     		strb	r3, [r4, #0]
 2991 0e48 FFF7FEFF 		bl	uart_transmit
 2992              	.LVL491:
 2993              	.LBE1965:
 2994              	.LBB1966:
 2995 0e4c 3E78     		ldrb	r6, [r7, #0]	@ zero_extendqisi2
 2996 0e4e 95F82F10 		ldrb	r1, [r5, #47]	@ zero_extendqisi2
 2997              	.LVL492:
 2998 0e52 2278     		ldrb	r2, [r4, #0]	@ zero_extendqisi2
 2999 0e54 8819     		adds	r0, r1, r6
 3000 0e56 C3B2     		uxtb	r3, r0
 3001 0e58 9E18     		adds	r6, r3, r2
 3002              	.LVL493:
 3003 0e5a 9748     		ldr	r0, .L1311
 3004 0e5c 3B70     		strb	r3, [r7, #0]
 3005 0e5e 2670     		strb	r6, [r4, #0]
 3006 0e60 FFF7FEFF 		bl	uart_transmit
 3007              	.LVL494:
 3008              	.LBE1966:
 3009              	.LBB1967:
 3010 0e64 3878     		ldrb	r0, [r7, #0]	@ zero_extendqisi2
 3011 0e66 95F83010 		ldrb	r1, [r5, #48]	@ zero_extendqisi2
 3012              	.LVL495:
 3013 0e6a 2278     		ldrb	r2, [r4, #0]	@ zero_extendqisi2
 3014 0e6c 0B18     		adds	r3, r1, r0
 3015 0e6e DEB2     		uxtb	r6, r3
 3016 0e70 B018     		adds	r0, r6, r2
 3017              	.LVL496:
 3018 0e72 2070     		strb	r0, [r4, #0]
 3019 0e74 9048     		ldr	r0, .L1311
 3020 0e76 3E70     		strb	r6, [r7, #0]
 3021 0e78 FFF7FEFF 		bl	uart_transmit
 3022              	.LVL497:
 3023              	.LBE1967:
 3024              	.LBB1968:
 3025 0e7c 3B78     		ldrb	r3, [r7, #0]	@ zero_extendqisi2
 3026 0e7e 95F83110 		ldrb	r1, [r5, #49]	@ zero_extendqisi2
 3027              	.LVL498:
 3028 0e82 2278     		ldrb	r2, [r4, #0]	@ zero_extendqisi2
 3029 0e84 CE18     		adds	r6, r1, r3
 3030              	.LVL499:
 3031 0e86 F0B2     		uxtb	r0, r6
 3032 0e88 8318     		adds	r3, r0, r2
 3033              	.LVL500:
 3034 0e8a 3870     		strb	r0, [r7, #0]
 3035 0e8c 8A48     		ldr	r0, .L1311
 3036              	.LVL501:
 3037 0e8e 2370     		strb	r3, [r4, #0]
 3038 0e90 FFF7FEFF 		bl	uart_transmit
 3039              	.LVL502:
 3040              	.LBE1968:
 3041              	.LBB1969:
 3042 0e94 3E78     		ldrb	r6, [r7, #0]	@ zero_extendqisi2
 3043 0e96 95F83210 		ldrb	r1, [r5, #50]	@ zero_extendqisi2
 3044              	.LVL503:
 3045 0e9a 2278     		ldrb	r2, [r4, #0]	@ zero_extendqisi2
 3046 0e9c 8819     		adds	r0, r1, r6
 3047 0e9e C3B2     		uxtb	r3, r0
 3048 0ea0 9E18     		adds	r6, r3, r2
 3049              	.LVL504:
 3050 0ea2 8548     		ldr	r0, .L1311
 3051 0ea4 3B70     		strb	r3, [r7, #0]
 3052 0ea6 2670     		strb	r6, [r4, #0]
 3053 0ea8 FFF7FEFF 		bl	uart_transmit
 3054              	.LVL505:
 3055              	.LBE1969:
 3056              	.LBB1970:
 3057 0eac 3878     		ldrb	r0, [r7, #0]	@ zero_extendqisi2
 3058 0eae 95F83310 		ldrb	r1, [r5, #51]	@ zero_extendqisi2
 3059              	.LVL506:
 3060 0eb2 2278     		ldrb	r2, [r4, #0]	@ zero_extendqisi2
 3061 0eb4 0B18     		adds	r3, r1, r0
 3062 0eb6 DEB2     		uxtb	r6, r3
 3063 0eb8 B018     		adds	r0, r6, r2
 3064              	.LVL507:
 3065 0eba 2070     		strb	r0, [r4, #0]
 3066 0ebc 7E48     		ldr	r0, .L1311
 3067 0ebe 3E70     		strb	r6, [r7, #0]
 3068 0ec0 FFF7FEFF 		bl	uart_transmit
 3069              	.LVL508:
 3070              	.LBE1970:
 3071              	.LBB1971:
 3072 0ec4 3B78     		ldrb	r3, [r7, #0]	@ zero_extendqisi2
 3073 0ec6 95F83410 		ldrb	r1, [r5, #52]	@ zero_extendqisi2
 3074              	.LVL509:
 3075 0eca 2278     		ldrb	r2, [r4, #0]	@ zero_extendqisi2
 3076 0ecc CE18     		adds	r6, r1, r3
 3077              	.LVL510:
 3078 0ece F0B2     		uxtb	r0, r6
 3079 0ed0 8318     		adds	r3, r0, r2
 3080              	.LVL511:
 3081 0ed2 3870     		strb	r0, [r7, #0]
 3082 0ed4 7848     		ldr	r0, .L1311
 3083              	.LVL512:
 3084 0ed6 2370     		strb	r3, [r4, #0]
 3085 0ed8 FFF7FEFF 		bl	uart_transmit
 3086              	.LVL513:
 3087              	.LBE1971:
 3088              	.LBB1972:
 3089 0edc 3E78     		ldrb	r6, [r7, #0]	@ zero_extendqisi2
 3090 0ede 95F83510 		ldrb	r1, [r5, #53]	@ zero_extendqisi2
 3091              	.LVL514:
 3092 0ee2 2278     		ldrb	r2, [r4, #0]	@ zero_extendqisi2
 3093 0ee4 8819     		adds	r0, r1, r6
 3094 0ee6 C3B2     		uxtb	r3, r0
 3095 0ee8 9E18     		adds	r6, r3, r2
 3096              	.LVL515:
 3097 0eea 7348     		ldr	r0, .L1311
 3098 0eec 3B70     		strb	r3, [r7, #0]
 3099 0eee 2670     		strb	r6, [r4, #0]
 3100 0ef0 FFF7FEFF 		bl	uart_transmit
 3101              	.LVL516:
 3102              	.LBE1972:
 3103              	.LBB1973:
 3104 0ef4 3878     		ldrb	r0, [r7, #0]	@ zero_extendqisi2
 3105 0ef6 95F83610 		ldrb	r1, [r5, #54]	@ zero_extendqisi2
 3106              	.LVL517:
 3107 0efa 2278     		ldrb	r2, [r4, #0]	@ zero_extendqisi2
 3108 0efc 0B18     		adds	r3, r1, r0
 3109 0efe DEB2     		uxtb	r6, r3
 3110 0f00 B018     		adds	r0, r6, r2
 3111              	.LVL518:
 3112 0f02 2070     		strb	r0, [r4, #0]
 3113 0f04 6C48     		ldr	r0, .L1311
 3114 0f06 3E70     		strb	r6, [r7, #0]
 3115 0f08 FFF7FEFF 		bl	uart_transmit
 3116              	.LVL519:
 3117              	.LBE1973:
 3118              	.LBB1974:
 3119 0f0c 3B78     		ldrb	r3, [r7, #0]	@ zero_extendqisi2
 3120 0f0e 95F83710 		ldrb	r1, [r5, #55]	@ zero_extendqisi2
 3121              	.LVL520:
 3122 0f12 2278     		ldrb	r2, [r4, #0]	@ zero_extendqisi2
 3123 0f14 CE18     		adds	r6, r1, r3
 3124              	.LVL521:
 3125 0f16 F0B2     		uxtb	r0, r6
 3126 0f18 8318     		adds	r3, r0, r2
 3127              	.LVL522:
 3128 0f1a 3870     		strb	r0, [r7, #0]
 3129 0f1c 6648     		ldr	r0, .L1311
 3130              	.LVL523:
 3131 0f1e 2370     		strb	r3, [r4, #0]
 3132 0f20 FFF7FEFF 		bl	uart_transmit
 3133              	.LVL524:
 3134              	.LBE1974:
 3135              	.LBB1975:
 3136 0f24 3E78     		ldrb	r6, [r7, #0]	@ zero_extendqisi2
 3137 0f26 95F84C10 		ldrb	r1, [r5, #76]	@ zero_extendqisi2
 3138              	.LVL525:
 3139 0f2a 2278     		ldrb	r2, [r4, #0]	@ zero_extendqisi2
 3140 0f2c 8819     		adds	r0, r1, r6
 3141 0f2e C3B2     		uxtb	r3, r0
 3142 0f30 9E18     		adds	r6, r3, r2
 3143              	.LVL526:
 3144 0f32 6148     		ldr	r0, .L1311
 3145 0f34 3B70     		strb	r3, [r7, #0]
 3146 0f36 2670     		strb	r6, [r4, #0]
 3147 0f38 FFF7FEFF 		bl	uart_transmit
 3148              	.LVL527:
 3149              	.LBE1975:
 3150              	.LBB1976:
 3151 0f3c 3878     		ldrb	r0, [r7, #0]	@ zero_extendqisi2
 3152 0f3e 95F84D10 		ldrb	r1, [r5, #77]	@ zero_extendqisi2
 3153              	.LVL528:
 3154 0f42 2278     		ldrb	r2, [r4, #0]	@ zero_extendqisi2
 3155 0f44 0B18     		adds	r3, r1, r0
 3156 0f46 DEB2     		uxtb	r6, r3
 3157 0f48 B018     		adds	r0, r6, r2
 3158              	.LVL529:
 3159 0f4a 2070     		strb	r0, [r4, #0]
 3160 0f4c 5A48     		ldr	r0, .L1311
 3161 0f4e 3E70     		strb	r6, [r7, #0]
 3162 0f50 FFF7FEFF 		bl	uart_transmit
 3163              	.LVL530:
 3164              	.LBE1976:
 3165              	.LBB1977:
 3166 0f54 3B78     		ldrb	r3, [r7, #0]	@ zero_extendqisi2
 3167 0f56 95F84E10 		ldrb	r1, [r5, #78]	@ zero_extendqisi2
 3168              	.LVL531:
 3169 0f5a 2278     		ldrb	r2, [r4, #0]	@ zero_extendqisi2
 3170 0f5c CE18     		adds	r6, r1, r3
 3171              	.LVL532:
 3172 0f5e F0B2     		uxtb	r0, r6
 3173 0f60 8318     		adds	r3, r0, r2
 3174              	.LVL533:
 3175 0f62 3870     		strb	r0, [r7, #0]
 3176 0f64 5448     		ldr	r0, .L1311
 3177              	.LVL534:
 3178 0f66 2370     		strb	r3, [r4, #0]
 3179 0f68 FFF7FEFF 		bl	uart_transmit
 3180              	.LVL535:
 3181              	.LBE1977:
 3182              	.LBB1978:
 3183 0f6c 3E78     		ldrb	r6, [r7, #0]	@ zero_extendqisi2
 3184 0f6e 95F84F10 		ldrb	r1, [r5, #79]	@ zero_extendqisi2
 3185              	.LVL536:
 3186 0f72 2278     		ldrb	r2, [r4, #0]	@ zero_extendqisi2
 3187 0f74 8819     		adds	r0, r1, r6
 3188 0f76 C3B2     		uxtb	r3, r0
 3189 0f78 9E18     		adds	r6, r3, r2
 3190              	.LVL537:
 3191 0f7a 4F48     		ldr	r0, .L1311
 3192 0f7c 3B70     		strb	r3, [r7, #0]
 3193 0f7e 2670     		strb	r6, [r4, #0]
 3194 0f80 FFF7FEFF 		bl	uart_transmit
 3195              	.LVL538:
 3196              	.LBE1978:
 3197              	.LBB1979:
 3198 0f84 3878     		ldrb	r0, [r7, #0]	@ zero_extendqisi2
 3199 0f86 95F85010 		ldrb	r1, [r5, #80]	@ zero_extendqisi2
 3200              	.LVL539:
 3201 0f8a 2278     		ldrb	r2, [r4, #0]	@ zero_extendqisi2
 3202 0f8c 0B18     		adds	r3, r1, r0
 3203 0f8e DEB2     		uxtb	r6, r3
 3204 0f90 B018     		adds	r0, r6, r2
 3205              	.LVL540:
 3206 0f92 2070     		strb	r0, [r4, #0]
 3207 0f94 4848     		ldr	r0, .L1311
 3208 0f96 3E70     		strb	r6, [r7, #0]
 3209 0f98 FFF7FEFF 		bl	uart_transmit
 3210              	.LVL541:
 3211              	.LBE1979:
 3212              	.LBB1980:
 3213 0f9c 3B78     		ldrb	r3, [r7, #0]	@ zero_extendqisi2
 3214 0f9e 95F85110 		ldrb	r1, [r5, #81]	@ zero_extendqisi2
 3215              	.LVL542:
 3216 0fa2 2278     		ldrb	r2, [r4, #0]	@ zero_extendqisi2
 3217 0fa4 CE18     		adds	r6, r1, r3
 3218              	.LVL543:
 3219 0fa6 F0B2     		uxtb	r0, r6
 3220 0fa8 8318     		adds	r3, r0, r2
 3221              	.LVL544:
 3222 0faa 3870     		strb	r0, [r7, #0]
 3223 0fac 4248     		ldr	r0, .L1311
 3224              	.LVL545:
 3225 0fae 2370     		strb	r3, [r4, #0]
 3226 0fb0 FFF7FEFF 		bl	uart_transmit
 3227              	.LVL546:
 3228              	.LBE1980:
 3229              	.LBB1981:
 3230 0fb4 3E78     		ldrb	r6, [r7, #0]	@ zero_extendqisi2
 3231 0fb6 95F85210 		ldrb	r1, [r5, #82]	@ zero_extendqisi2
 3232              	.LVL547:
 3233 0fba 2278     		ldrb	r2, [r4, #0]	@ zero_extendqisi2
 3234 0fbc 8819     		adds	r0, r1, r6
 3235 0fbe C3B2     		uxtb	r3, r0
 3236 0fc0 9E18     		adds	r6, r3, r2
 3237              	.LVL548:
 3238 0fc2 3D48     		ldr	r0, .L1311
 3239 0fc4 3B70     		strb	r3, [r7, #0]
 3240 0fc6 2670     		strb	r6, [r4, #0]
 3241 0fc8 FFF7FEFF 		bl	uart_transmit
 3242              	.LVL549:
 3243              	.LBE1981:
 3244              	.LBB1982:
 3245 0fcc 3878     		ldrb	r0, [r7, #0]	@ zero_extendqisi2
 3246 0fce 95F85310 		ldrb	r1, [r5, #83]	@ zero_extendqisi2
 3247              	.LVL550:
 3248 0fd2 2278     		ldrb	r2, [r4, #0]	@ zero_extendqisi2
 3249 0fd4 0B18     		adds	r3, r1, r0
 3250 0fd6 DEB2     		uxtb	r6, r3
 3251 0fd8 B018     		adds	r0, r6, r2
 3252              	.LVL551:
 3253 0fda 2070     		strb	r0, [r4, #0]
 3254 0fdc 3648     		ldr	r0, .L1311
 3255 0fde 3E70     		strb	r6, [r7, #0]
 3256 0fe0 FFF7FEFF 		bl	uart_transmit
 3257              	.LVL552:
 3258              	.LBE1982:
 3259              	.LBB1983:
 3260 0fe4 3B78     		ldrb	r3, [r7, #0]	@ zero_extendqisi2
 3261 0fe6 95F86010 		ldrb	r1, [r5, #96]	@ zero_extendqisi2
 3262              	.LVL553:
 3263 0fea 2278     		ldrb	r2, [r4, #0]	@ zero_extendqisi2
 3264 0fec CE18     		adds	r6, r1, r3
 3265              	.LVL554:
 3266 0fee F0B2     		uxtb	r0, r6
 3267 0ff0 8318     		adds	r3, r0, r2
 3268              	.LVL555:
 3269 0ff2 3870     		strb	r0, [r7, #0]
 3270 0ff4 3048     		ldr	r0, .L1311
 3271              	.LVL556:
 3272 0ff6 2370     		strb	r3, [r4, #0]
 3273 0ff8 FFF7FEFF 		bl	uart_transmit
 3274              	.LVL557:
 3275              	.LBE1983:
 3276              	.LBB1984:
 3277 0ffc 3E78     		ldrb	r6, [r7, #0]	@ zero_extendqisi2
 3278 0ffe 95F86110 		ldrb	r1, [r5, #97]	@ zero_extendqisi2
 3279              	.LVL558:
 3280 1002 2278     		ldrb	r2, [r4, #0]	@ zero_extendqisi2
 3281 1004 8819     		adds	r0, r1, r6
 3282 1006 C3B2     		uxtb	r3, r0
 3283 1008 9E18     		adds	r6, r3, r2
 3284              	.LVL559:
 3285 100a 2B48     		ldr	r0, .L1311
 3286 100c 3B70     		strb	r3, [r7, #0]
 3287 100e 2670     		strb	r6, [r4, #0]
 3288 1010 FFF7FEFF 		bl	uart_transmit
 3289              	.LVL560:
 3290              	.LBE1984:
 3291              	.LBB1985:
 3292 1014 3878     		ldrb	r0, [r7, #0]	@ zero_extendqisi2
 3293 1016 95F86210 		ldrb	r1, [r5, #98]	@ zero_extendqisi2
 3294              	.LVL561:
 3295 101a 2278     		ldrb	r2, [r4, #0]	@ zero_extendqisi2
 3296 101c 0B18     		adds	r3, r1, r0
 3297 101e DEB2     		uxtb	r6, r3
 3298 1020 B018     		adds	r0, r6, r2
 3299              	.LVL562:
 3300 1022 2070     		strb	r0, [r4, #0]
 3301 1024 2448     		ldr	r0, .L1311
 3302 1026 3E70     		strb	r6, [r7, #0]
 3303 1028 FFF7FEFF 		bl	uart_transmit
 3304              	.LVL563:
 3305              	.LBE1985:
 3306              	.LBB1986:
 3307 102c 3B78     		ldrb	r3, [r7, #0]	@ zero_extendqisi2
 3308 102e 95F86310 		ldrb	r1, [r5, #99]	@ zero_extendqisi2
 3309              	.LVL564:
 3310 1032 2278     		ldrb	r2, [r4, #0]	@ zero_extendqisi2
 3311 1034 CE18     		adds	r6, r1, r3
 3312              	.LVL565:
 3313 1036 F0B2     		uxtb	r0, r6
 3314 1038 8318     		adds	r3, r0, r2
 3315              	.LVL566:
 3316 103a 3870     		strb	r0, [r7, #0]
 3317 103c 1E48     		ldr	r0, .L1311
 3318              	.LVL567:
 3319 103e 2370     		strb	r3, [r4, #0]
 3320 1040 FFF7FEFF 		bl	uart_transmit
 3321              	.LVL568:
 3322              	.LBE1986:
 3323              	.LBB1987:
 3324 1044 3E78     		ldrb	r6, [r7, #0]	@ zero_extendqisi2
 3325 1046 95F85810 		ldrb	r1, [r5, #88]	@ zero_extendqisi2
 3326              	.LVL569:
 3327 104a 2278     		ldrb	r2, [r4, #0]	@ zero_extendqisi2
 3328 104c 8819     		adds	r0, r1, r6
 3329 104e C3B2     		uxtb	r3, r0
 3330 1050 9E18     		adds	r6, r3, r2
 3331              	.LVL570:
 3332 1052 1948     		ldr	r0, .L1311
 3333 1054 3B70     		strb	r3, [r7, #0]
 3334 1056 2670     		strb	r6, [r4, #0]
 3335 1058 FFF7FEFF 		bl	uart_transmit
 3336              	.LVL571:
 3337              	.LBE1987:
 3338              	.LBB1988:
 3339 105c 3878     		ldrb	r0, [r7, #0]	@ zero_extendqisi2
 3340 105e 95F85910 		ldrb	r1, [r5, #89]	@ zero_extendqisi2
 3341              	.LVL572:
 3342 1062 2278     		ldrb	r2, [r4, #0]	@ zero_extendqisi2
 3343 1064 0B18     		adds	r3, r1, r0
 3344 1066 DEB2     		uxtb	r6, r3
 3345 1068 B018     		adds	r0, r6, r2
 3346              	.LVL573:
 3347 106a 2070     		strb	r0, [r4, #0]
 3348 106c 1248     		ldr	r0, .L1311
 3349 106e 3E70     		strb	r6, [r7, #0]
 3350 1070 FFF7FEFF 		bl	uart_transmit
 3351              	.LVL574:
 3352              	.LBE1988:
 3353              	.LBB1989:
 3354 1074 3B78     		ldrb	r3, [r7, #0]	@ zero_extendqisi2
 3355 1076 95F85A10 		ldrb	r1, [r5, #90]	@ zero_extendqisi2
 3356              	.LVL575:
 3357 107a 2278     		ldrb	r2, [r4, #0]	@ zero_extendqisi2
 3358 107c CE18     		adds	r6, r1, r3
 3359              	.LVL576:
 3360 107e F0B2     		uxtb	r0, r6
 3361 1080 8318     		adds	r3, r0, r2
 3362              	.LVL577:
 3363 1082 3870     		strb	r0, [r7, #0]
 3364 1084 0C48     		ldr	r0, .L1311
 3365              	.LVL578:
 3366 1086 2370     		strb	r3, [r4, #0]
 3367 1088 FFF7FEFF 		bl	uart_transmit
 3368              	.LVL579:
 3369              	.LBE1989:
 3370              	.LBB1990:
 3371 108c 95F85B10 		ldrb	r1, [r5, #91]	@ zero_extendqisi2
 3372              	.LVL580:
 3373 1090 3D78     		ldrb	r5, [r7, #0]	@ zero_extendqisi2
 3374              	.LVL581:
 3375 1092 2278     		ldrb	r2, [r4, #0]	@ zero_extendqisi2
 3376 1094 4E19     		adds	r6, r1, r5
 3377 1096 F0B2     		uxtb	r0, r6
 3378 1098 8318     		adds	r3, r0, r2
 3379              	.LVL582:
 3380 109a 3870     		strb	r0, [r7, #0]
 3381 109c 0648     		ldr	r0, .L1311
 3382              	.LVL583:
 3383 109e 2370     		strb	r3, [r4, #0]
 3384 10a0 FFF7FEFF 		bl	uart_transmit
 3385              	.LVL584:
 3386              	.LBE1990:
 3387 10a4 3978     		ldrb	r1, [r7, #0]	@ zero_extendqisi2
 3388 10a6 0448     		ldr	r0, .L1311
 3389 10a8 FFF7FEFF 		bl	uart_transmit
 3390              	.LVL585:
 3391 10ac 0248     		ldr	r0, .L1311
 3392 10ae 2178     		ldrb	r1, [r4, #0]	@ zero_extendqisi2
 3393 10b0 FFF7FEFF 		bl	uart_transmit
 3394              	.LVL586:
 3395 10b4 06E0     		b	.L94
 3396              	.L1312:
 3397 10b6 00BF     		.align	2
 3398              	.L1311:
 3399 10b8 00000000 		.word	uart2
 3400              	.LVL587:
 3401              	.L93:
 3402 10bc 6B4F     		ldr	r7, .L1313
 3403 10be 3D78     		ldrb	r5, [r7, #0]	@ zero_extendqisi2
 3404 10c0 691C     		adds	r1, r5, #1
 3405 10c2 3970     		strb	r1, [r7, #0]
 3406              	.L94:
 3407 10c4 6A4C     		ldr	r4, .L1313+4
 3408 10c6 6B49     		ldr	r1, .L1313+8
 3409 10c8 94F86470 		ldrb	r7, [r4, #100]	@ zero_extendqisi2
